

Microchip MPLAB XC8 Assembler V2.32 build 20210201212658 
                                                                                               Fri Dec 17 14:58:01 2021

Microchip MPLAB XC8 C Compiler v2.32 (Free license) build 20210201212658 Og1 
     1                           	processor	18F4520
     2                           	fnconf	rparam,??,?,0
     3                           	pagewidth 120
     4                           	opt	flic
     5                           	psect	mediumconst,global,reloc=2,class=MEDIUMCONST,delta=1,noexec
     6                           	psect	cinit,global,reloc=2,class=CODE,delta=1
     7                           	psect	bssCOMRAM,global,class=COMRAM,space=1,delta=1,lowdata,noexec
     8                           	psect	bssBANK0,global,class=BANK0,space=1,delta=1,lowdata,noexec
     9                           	psect	cstackCOMRAM,global,class=COMRAM,space=1,delta=1,lowdata,noexec
    10                           	psect	text0,global,reloc=2,class=CODE,delta=1
    11                           	psect	text1,global,reloc=2,class=CODE,delta=1
    12                           	psect	text2,global,reloc=2,class=CODE,delta=1
    13                           	psect	text3,global,reloc=2,class=CODE,delta=1
    14                           	psect	text4,global,reloc=2,class=CODE,delta=1
    15                           	psect	text5,global,reloc=2,class=CODE,delta=1
    16                           	psect	text6,global,reloc=2,class=CODE,delta=1
    17                           	psect	text7,global,reloc=2,class=CODE,delta=1
    18                           	psect	text8,global,reloc=2,class=CODE,delta=1
    19                           	psect	text9,global,reloc=2,class=CODE,delta=1
    20                           	psect	text10,global,reloc=2,class=CODE,delta=1
    21                           	psect	text11,global,reloc=2,class=CODE,delta=1
    22                           	psect	text12,global,reloc=2,class=CODE,delta=1
    23                           	psect	text13,global,reloc=2,class=CODE,delta=1
    24                           	psect	text14,global,reloc=2,class=CODE,delta=1
    25                           	psect	text15,global,reloc=2,class=CODE,delta=1
    26                           	psect	text16,global,reloc=2,class=CODE,delta=1
    27                           	psect	text17,global,reloc=2,class=CODE,delta=1
    28                           	psect	text18,global,reloc=2,class=CODE,delta=1
    29                           	psect	text19,global,reloc=2,class=CODE,delta=1
    30                           	psect	text20,global,reloc=2,class=CODE,delta=1
    31                           	psect	text21,global,reloc=2,class=CODE,delta=1
    32                           	psect	text22,global,reloc=2,class=CODE,delta=1
    33                           	psect	text23,global,reloc=2,class=CODE,delta=1,group=1
    34                           	psect	text24,global,reloc=2,class=CODE,delta=1,group=1
    35                           	psect	text25,global,reloc=2,class=CODE,delta=1,group=1
    36                           	psect	text26,global,reloc=2,class=CODE,delta=1,group=1
    37                           	psect	text27,global,reloc=2,class=CODE,delta=1,group=1
    38                           	psect	text28,global,reloc=2,class=CODE,delta=1,group=1
    39                           	psect	text29,global,reloc=2,class=CODE,delta=1,group=1
    40                           	psect	text30,global,reloc=2,class=CODE,delta=1,group=1
    41                           	psect	text31,global,reloc=2,class=CODE,delta=1
    42                           	psect	text32,global,reloc=2,class=CODE,delta=1
    43                           	psect	text33,global,reloc=2,class=CODE,delta=1
    44                           	psect	text34,global,reloc=2,class=CODE,delta=1
    45                           	psect	text35,global,reloc=2,class=CODE,delta=1
    46                           	psect	text36,global,reloc=2,class=CODE,delta=1
    47                           	psect	text37,global,reloc=2,class=CODE,delta=1
    48                           	psect	text38,global,reloc=2,class=CODE,delta=1
    49                           	psect	text39,global,reloc=2,class=CODE,delta=1
    50                           	psect	text40,global,reloc=2,class=CODE,delta=1
    51                           	psect	text41,global,reloc=2,class=CODE,delta=1
    52                           	psect	text42,global,reloc=2,class=CODE,delta=1
    53                           	psect	text43,global,reloc=2,class=CODE,delta=1
    54                           	psect	text44,global,reloc=2,class=CODE,delta=1
    55                           	psect	text45,global,reloc=2,class=CODE,delta=1
    56                           	psect	intsave_regs,global,class=BIGRAM,space=1,delta=1,noexec
    57                           	psect	rparam,global,class=COMRAM,space=1,delta=1,noexec
    58                           	psect	idloc,global,abs,ovrld,class=IDLOC,space=5,delta=1,noexec
    59                           	psect	config,global,abs,ovrld,class=CONFIG,space=4,delta=1,noexec
    60  0000                     
    61                           ; Version 2.20
    62                           ; Generated 12/02/2020 GMT
    63                           ; 
    64                           ; Copyright © 2020, Microchip Technology Inc. and its subsidiaries ("Microchip")
    65                           ; All rights reserved.
    66                           ; 
    67                           ; This software is developed by Microchip Technology Inc. and its subsidiaries ("Microch
      +                          ip").
    68                           ; 
    69                           ; Redistribution and use in source and binary forms, with or without modification, are
    70                           ; permitted provided that the following conditions are met:
    71                           ; 
    72                           ;     1. Redistributions of source code must retain the above copyright notice, this lis
      +                          t of
    73                           ;        conditions and the following disclaimer.
    74                           ; 
    75                           ;     2. Redistributions in binary form must reproduce the above copyright notice, this 
      +                          list
    76                           ;        of conditions and the following disclaimer in the documentation and/or other
    77                           ;        materials provided with the distribution.
    78                           ; 
    79                           ;     3. Microchip's name may not be used to endorse or promote products derived from th
      +                          is
    80                           ;        software without specific prior written permission.
    81                           ; 
    82                           ; THIS SOFTWARE IS PROVIDED BY MICROCHIP "AS IS" AND ANY EXPRESS OR IMPLIED WARRANTIES,
    83                           ; INCLUDING, BUT NOT LIMITED TO, THE IMPLIED WARRANTIES OF MERCHANTABILITY AND FITNESS F
      +                          OR
    84                           ; PURPOSE ARE DISCLAIMED.  IN NO EVENT SHALL MICROCHIP BE LIABLE FOR ANY DIRECT, INDIREC
      +                          T,
    85                           ; INCIDENTAL, SPECIAL, EXEMPLARY, OR CONSEQUENTIAL DAMAGES (INCLUDING BUT NOT LIMITED TO
    86                           ; PROCUREMENT OF SUBSTITUTE GOODS OR SERVICES; LOSS OF USE, DATA OR PROFITS; OR BUSINESS
    87                           ; INTERRUPTION) HOWSOEVER CAUSED AND ON ANY THEORY OF LIABILITY, WHETHER IN CONTRACT, ST
      +                          RICT
    88                           ; LIABILITY, OR TORT (INCLUDING NEGLIGENCE OR OTHERWISE) ARISING IN ANY WAY OUT OF THE U
      +                          SE OF
    89                           ; THIS SOFTWARE, EVEN IF ADVISED OF THE POSSIBILITY OF SUCH DAMAGE.
    90                           ; 
    91                           ; 
    92                           ; Code-generator required, PIC18F4520 Definitions
    93                           ; 
    94                           ; SFR Addresses
    95  0000                     
    96                           	psect	mediumconst
    97  007D40                     __pmediumconst:
    98                           	callstack 0
    99  007D40  00                 	db	0
   100  007D41                     _valor:
   101                           	callstack 0
   102  007D41  3F                 	db	63
   103  007D42  06                 	db	6
   104  007D43  5B                 	db	91
   105  007D44  4F                 	db	79
   106  007D45  66                 	db	102
   107  007D46  6D                 	db	109
   108  007D47  7D                 	db	125
   109  007D48  07                 	db	7
   110  007D49  7F                 	db	127
   111  007D4A  6F                 	db	111
   112  007D4B  77                 	db	119
   113  007D4C  7C                 	db	124
   114  007D4D  39                 	db	57
   115  007D4E  5E                 	db	94
   116  007D4F  79                 	db	121
   117  007D50  71                 	db	113
   118  007D51                     __end_of_valor:
   119                           	callstack 0
   120  007D51                     _charKey:
   121                           	callstack 0
   122  007D51  55                 	db	85
   123  007D52  4C                 	db	76
   124  007D53  44                 	db	68
   125  007D54  52                 	db	82
   126  007D55  53                 	db	83
   127  007D56  58                 	db	88
   128  007D57  41                 	db	65
   129  007D58  42                 	db	66
   130  007D59  59                 	db	89
   131  007D5A  73                 	db	115
   132  007D5B                     __end_of_charKey:
   133                           	callstack 0
   134  0000                     _T0CON	set	4053
   135  0000                     _TMR0L	set	4054
   136  0000                     _TMR0H	set	4055
   137  0000                     _INTCON	set	4082
   138  0000                     _TRISE	set	3990
   139  0000                     _TRISD	set	3989
   140  0000                     _TRISC	set	3988
   141  0000                     _TRISB	set	3987
   142  0000                     _TRISA	set	3986
   143  0000                     _PORTE	set	3972
   144  0000                     _PORTD	set	3971
   145  0000                     _PORTC	set	3970
   146  0000                     _PORTB	set	3969
   147  0000                     _PORTA	set	3968
   148  0000                     _ADCON1	set	4033
   149  0000                     _RCREG	set	4014
   150  0000                     _PIR1bits	set	3998
   151  0000                     _TXREG	set	4013
   152  0000                     _RCSTAbits	set	4011
   153  0000                     _TXSTAbits	set	4012
   154  0000                     _SPBRG	set	4015
   155  007D5B                     STR_16:
   156  007D5B  0D                 	db	13
   157  007D5C  0A                 	db	10
   158  007D5D  0A                 	db	10
   159  007D5E  41                 	db	65	;'A'
   160  007D5F  70                 	db	112	;'p'
   161  007D60  65                 	db	101	;'e'
   162  007D61  72                 	db	114	;'r'
   163  007D62  74                 	db	116	;'t'
   164  007D63  65                 	db	101	;'e'
   165  007D64  20                 	db	32
   166  007D65  28                 	db	40
   167  007D66  64                 	db	100	;'d'
   168  007D67  37                 	db	55	;'7'
   169  007D68  29                 	db	41
   170  007D69  20                 	db	32
   171  007D6A  6E                 	db	110	;'n'
   172  007D6B  6F                 	db	111	;'o'
   173  007D6C  20                 	db	32
   174  007D6D  74                 	db	116	;'t'
   175  007D6E  65                 	db	101	;'e'
   176  007D6F  63                 	db	99	;'c'
   177  007D70  6C                 	db	108	;'l'
   178  007D71  61                 	db	97	;'a'
   179  007D72  64                 	db	100	;'d'
   180  007D73  6F                 	db	111	;'o'
   181  007D74  20                 	db	32
   182  007D75  70                 	db	112	;'p'
   183  007D76  61                 	db	97	;'a'
   184  007D77  72                 	db	114	;'r'
   185  007D78  61                 	db	97	;'a'
   186  007D79  20                 	db	32
   187  007D7A  63                 	db	99	;'c'
   188  007D7B  6F                 	db	111	;'o'
   189  007D7C  6D                 	db	109	;'m'
   190  007D7D  65                 	db	101	;'e'
   191  007D7E  63                 	db	99	;'c'
   192  007D7F  61                 	db	97	;'a'
   193  007D80  72                 	db	114	;'r'
   194  007D81  20                 	db	32
   195  007D82  61                 	db	97	;'a'
   196  007D83  20                 	db	32
   197  007D84  61                 	db	97	;'a'
   198  007D85  62                 	db	98	;'b'
   199  007D86  61                 	db	97	;'a'
   200  007D87  73                 	db	115	;'s'
   201  007D88  74                 	db	116	;'t'
   202  007D89  65                 	db	101	;'e'
   203  007D8A  63                 	db	99	;'c'
   204  007D8B  65                 	db	101	;'e'
   205  007D8C  72                 	db	114	;'r'
   206  007D8D  2E                 	db	46
   207  007D8E  2E                 	db	46
   208  007D8F  2E                 	db	46
   209  007D90  0A                 	db	10
   210  007D91  0D                 	db	13
   211  007D92  00                 	db	0
   212  007D93                     STR_34:
   213  007D93  0D                 	db	13
   214  007D94  0A                 	db	10
   215  007D95  41                 	db	65	;'A'
   216  007D96  62                 	db	98	;'b'
   217  007D97  61                 	db	97	;'a'
   218  007D98  73                 	db	115	;'s'
   219  007D99  74                 	db	116	;'t'
   220  007D9A  65                 	db	101	;'e'
   221  007D9B  63                 	db	99	;'c'
   222  007D9C  65                 	db	101	;'e'
   223  007D9D  72                 	db	114	;'r'
   224  007D9E  20                 	db	32
   225  007D9F  70                 	db	112	;'p'
   226  007DA0  6F                 	db	111	;'o'
   227  007DA1  72                 	db	114	;'r'
   228  007DA2  20                 	db	32
   229  007DA3  6C                 	db	108	;'l'
   230  007DA4  69                 	db	105	;'i'
   231  007DA5  74                 	db	116	;'t'
   232  007DA6  72                 	db	114	;'r'
   233  007DA7  6F                 	db	111	;'o'
   234  007DA8  20                 	db	32
   235  007DA9  6F                 	db	111	;'o'
   236  007DAA  75                 	db	117	;'u'
   237  007DAB  20                 	db	32
   238  007DAC  72                 	db	114	;'r'
   239  007DAD  65                 	db	101	;'e'
   240  007DAE  61                 	db	97	;'a'
   241  007DAF  6C                 	db	108	;'l'
   242  007DB0  20                 	db	32
   243  007DB1  5B                 	db	91	;'['
   244  007DB2  28                 	db	40
   245  007DB3  4C                 	db	76	;'L'
   246  007DB4  29                 	db	41
   247  007DB5  69                 	db	105	;'i'
   248  007DB6  74                 	db	116	;'t'
   249  007DB7  72                 	db	114	;'r'
   250  007DB8  6F                 	db	111	;'o'
   251  007DB9  2F                 	db	47
   252  007DBA  28                 	db	40
   253  007DBB  52                 	db	82	;'R'
   254  007DBC  29                 	db	41
   255  007DBD  65                 	db	101	;'e'
   256  007DBE  61                 	db	97	;'a'
   257  007DBF  6C                 	db	108	;'l'
   258  007DC0  5D                 	db	93	;']'
   259  007DC1  3A                 	db	58	;':'
   260  007DC2  20                 	db	32
   261  007DC3  0D                 	db	13
   262  007DC4  00                 	db	0
   263  007DC5                     STR_3:
   264  007DC5  0D                 	db	13
   265  007DC6  0A                 	db	10
   266  007DC7  50                 	db	80	;'P'
   267  007DC8  69                 	db	105	;'i'
   268  007DC9  63                 	db	99	;'c'
   269  007DCA  53                 	db	83	;'S'
   270  007DCB  69                 	db	105	;'i'
   271  007DCC  6D                 	db	109	;'m'
   272  007DCD  4C                 	db	76	;'L'
   273  007DCE  61                 	db	97	;'a'
   274  007DCF  62                 	db	98	;'b'
   275  007DD0  2D                 	db	45
   276  007DD1  42                 	db	66	;'B'
   277  007DD2  6F                 	db	111	;'o'
   278  007DD3  6D                 	db	109	;'m'
   279  007DD4  62                 	db	98	;'b'
   280  007DD5  61                 	db	97	;'a'
   281  007DD6  20                 	db	32
   282  007DD7  64                 	db	100	;'d'
   283  007DD8  65                 	db	101	;'e'
   284  007DD9  20                 	db	32
   285  007DDA  63                 	db	99	;'c'
   286  007DDB  6F                 	db	111	;'o'
   287  007DDC  6D                 	db	109	;'m'
   288  007DDD  62                 	db	98	;'b'
   289  007DDE  75                 	db	117	;'u'
   290  007DDF  73                 	db	115	;'s'
   291  007DE0  74                 	db	116	;'t'
   292  007DE1  69                 	db	105	;'i'
   293  007DE2  76                 	db	118	;'v'
   294  007DE3  65                 	db	101	;'e'
   295  007DE4  6C                 	db	108	;'l'
   296  007DE5  0A                 	db	10
   297  007DE6  0D                 	db	13
   298  007DE7  00                 	db	0
   299  007DE8                     STR_27:
   300  007DE8  0D                 	db	13
   301  007DE9  0A                 	db	10
   302  007DEA  4F                 	db	79	;'O'
   303  007DEB  62                 	db	98	;'b'
   304  007DEC  72                 	db	114	;'r'
   305  007DED  69                 	db	105	;'i'
   306  007DEE  67                 	db	103	;'g'
   307  007DEF  61                 	db	97	;'a'
   308  007DF0  64                 	db	100	;'d'
   309  007DF1  6F                 	db	111	;'o'
   310  007DF2  20                 	db	32
   311  007DF3  70                 	db	112	;'p'
   312  007DF4  65                 	db	101	;'e'
   313  007DF5  6C                 	db	108	;'l'
   314  007DF6  61                 	db	97	;'a'
   315  007DF7  20                 	db	32
   316  007DF8  70                 	db	112	;'p'
   317  007DF9  72                 	db	114	;'r'
   318  007DFA  65                 	db	101	;'e'
   319  007DFB  66                 	db	102	;'f'
   320  007DFC  65                 	db	101	;'e'
   321  007DFD  72                 	db	114	;'r'
   322  007DFE  65                 	db	101	;'e'
   323  007DFF  6E                 	db	110	;'n'
   324  007E00  63                 	db	99	;'c'
   325  007E01  69                 	db	105	;'i'
   326  007E02  61                 	db	97	;'a'
   327  007E03  21                 	db	33
   328  007E04  0A                 	db	10
   329  007E05  0D                 	db	13
   330  007E06  00                 	db	0
   331  007E07                     STR_4:
   332  007E07  0D                 	db	13
   333  007E08  0A                 	db	10
   334  007E09  43                 	db	67	;'C'
   335  007E0A  6F                 	db	111	;'o'
   336  007E0B  6D                 	db	109	;'m'
   337  007E0C  62                 	db	98	;'b'
   338  007E0D  75                 	db	117	;'u'
   339  007E0E  73                 	db	115	;'s'
   340  007E0F  74                 	db	116	;'t'
   341  007E10  69                 	db	105	;'i'
   342  007E11  76                 	db	118	;'v'
   343  007E12  65                 	db	101	;'e'
   344  007E13  69                 	db	105	;'i'
   345  007E14  73                 	db	115	;'s'
   346  007E15  20                 	db	32
   347  007E16  64                 	db	100	;'d'
   348  007E17  69                 	db	105	;'i'
   349  007E18  73                 	db	115	;'s'
   350  007E19  70                 	db	112	;'p'
   351  007E1A  6F                 	db	111	;'o'
   352  007E1B  6E                 	db	110	;'n'
   353  007E1C  69                 	db	105	;'i'
   354  007E1D  76                 	db	118	;'v'
   355  007E1E  65                 	db	101	;'e'
   356  007E1F  69                 	db	105	;'i'
   357  007E20  73                 	db	115	;'s'
   358  007E21  3A                 	db	58	;':'
   359  007E22  0A                 	db	10
   360  007E23  0D                 	db	13
   361  007E24  00                 	db	0
   362  007E25                     STR_5:
   363  007E25  0D                 	db	13
   364  007E26  28                 	db	40
   365  007E27  64                 	db	100	;'d'
   366  007E28  33                 	db	51	;'3'
   367  007E29  29                 	db	41
   368  007E2A  20                 	db	32
   369  007E2B  2D                 	db	45
   370  007E2C  20                 	db	32
   371  007E2D  47                 	db	71	;'G'
   372  007E2E  61                 	db	97	;'a'
   373  007E2F  73                 	db	115	;'s'
   374  007E30  6F                 	db	111	;'o'
   375  007E31  6C                 	db	108	;'l'
   376  007E32  69                 	db	105	;'i'
   377  007E33  6E                 	db	110	;'n'
   378  007E34  61                 	db	97	;'a'
   379  007E35  20                 	db	32
   380  007E36  52                 	db	82	;'R'
   381  007E37  24                 	db	36
   382  007E38  20                 	db	32
   383  007E39  36                 	db	54	;'6'
   384  007E3A  2C                 	db	44
   385  007E3B  32                 	db	50	;'2'
   386  007E3C  0A                 	db	10
   387  007E3D  0D                 	db	13
   388  007E3E  00                 	db	0
   389  007E3F                     STR_22:
   390  007E3F  0D                 	db	13
   391  007E40  0A                 	db	10
   392  007E41  50                 	db	80	;'P'
   393  007E42  72                 	db	114	;'r'
   394  007E43  65                 	db	101	;'e'
   395  007E44  63                 	db	99	;'c'
   396  007E45  6F                 	db	111	;'o'
   397  007E46  20                 	db	32
   398  007E47  61                 	db	97	;'a'
   399  007E48  20                 	db	32
   400  007E49  73                 	db	115	;'s'
   401  007E4A  65                 	db	101	;'e'
   402  007E4B  20                 	db	32
   403  007E4C  70                 	db	112	;'p'
   404  007E4D  61                 	db	97	;'a'
   405  007E4E  67                 	db	103	;'g'
   406  007E4F  61                 	db	97	;'a'
   407  007E50  72                 	db	114	;'r'
   408  007E51  3A                 	db	58	;':'
   409  007E52  20                 	db	32
   410  007E53  52                 	db	82	;'R'
   411  007E54  24                 	db	36
   412  007E55  20                 	db	32
   413  007E56  0D                 	db	13
   414  007E57  00                 	db	0
   415  007E58                     STR_8:
   416  007E58  0D                 	db	13
   417  007E59  45                 	db	69	;'E'
   418  007E5A  73                 	db	115	;'s'
   419  007E5B  63                 	db	99	;'c'
   420  007E5C  6F                 	db	111	;'o'
   421  007E5D  6C                 	db	108	;'l'
   422  007E5E  68                 	db	104	;'h'
   423  007E5F  61                 	db	97	;'a'
   424  007E60  20                 	db	32
   425  007E61  75                 	db	117	;'u'
   426  007E62  6D                 	db	109	;'m'
   427  007E63  61                 	db	97	;'a'
   428  007E64  20                 	db	32
   429  007E65  6F                 	db	111	;'o'
   430  007E66  70                 	db	112	;'p'
   431  007E67  63                 	db	99	;'c'
   432  007E68  61                 	db	97	;'a'
   433  007E69  6F                 	db	111	;'o'
   434  007E6A  2E                 	db	46
   435  007E6B  2E                 	db	46
   436  007E6C  2E                 	db	46
   437  007E6D  0A                 	db	10
   438  007E6E  0D                 	db	13
   439  007E6F  00                 	db	0
   440  007E70                     STR_7:
   441  007E70  0D                 	db	13
   442  007E71  28                 	db	40
   443  007E72  64                 	db	100	;'d'
   444  007E73  35                 	db	53	;'5'
   445  007E74  29                 	db	41
   446  007E75  20                 	db	32
   447  007E76  2D                 	db	45
   448  007E77  20                 	db	32
   449  007E78  44                 	db	68	;'D'
   450  007E79  69                 	db	105	;'i'
   451  007E7A  65                 	db	101	;'e'
   452  007E7B  73                 	db	115	;'s'
   453  007E7C  65                 	db	101	;'e'
   454  007E7D  6C                 	db	108	;'l'
   455  007E7E  20                 	db	32
   456  007E7F  52                 	db	82	;'R'
   457  007E80  24                 	db	36
   458  007E81  20                 	db	32
   459  007E82  34                 	db	52	;'4'
   460  007E83  2C                 	db	44
   461  007E84  37                 	db	55	;'7'
   462  007E85  0A                 	db	10
   463  007E86  0D                 	db	13
   464  007E87  00                 	db	0
   465  007E88                     STR_6:
   466  007E88  0D                 	db	13
   467  007E89  28                 	db	40
   468  007E8A  64                 	db	100	;'d'
   469  007E8B  34                 	db	52	;'4'
   470  007E8C  29                 	db	41
   471  007E8D  20                 	db	32
   472  007E8E  2D                 	db	45
   473  007E8F  20                 	db	32
   474  007E90  45                 	db	69	;'E'
   475  007E91  74                 	db	116	;'t'
   476  007E92  61                 	db	97	;'a'
   477  007E93  6E                 	db	110	;'n'
   478  007E94  6F                 	db	111	;'o'
   479  007E95  6C                 	db	108	;'l'
   480  007E96  20                 	db	32
   481  007E97  52                 	db	82	;'R'
   482  007E98  24                 	db	36
   483  007E99  20                 	db	32
   484  007E9A  34                 	db	52	;'4'
   485  007E9B  2C                 	db	44
   486  007E9C  39                 	db	57	;'9'
   487  007E9D  0A                 	db	10
   488  007E9E  0D                 	db	13
   489  007E9F  00                 	db	0
   490  007EA0                     STR_37:
   491  007EA0  0D                 	db	13
   492  007EA1  0A                 	db	10
   493  007EA2  4F                 	db	79	;'O'
   494  007EA3  70                 	db	112	;'p'
   495  007EA4  63                 	db	99	;'c'
   496  007EA5  61                 	db	97	;'a'
   497  007EA6  6F                 	db	111	;'o'
   498  007EA7  20                 	db	32
   499  007EA8  49                 	db	73	;'I'
   500  007EA9  6E                 	db	110	;'n'
   501  007EAA  76                 	db	118	;'v'
   502  007EAB  61                 	db	97	;'a'
   503  007EAC  6C                 	db	108	;'l'
   504  007EAD  69                 	db	105	;'i'
   505  007EAE  64                 	db	100	;'d'
   506  007EAF  61                 	db	97	;'a'
   507  007EB0  21                 	db	33
   508  007EB1  20                 	db	32
   509  007EB2  0A                 	db	10
   510  007EB3  0D                 	db	13
   511  007EB4  00                 	db	0
   512  007EB5                     STR_13:
   513  007EB5  0D                 	db	13
   514  007EB6  0A                 	db	10
   515  007EB7  4F                 	db	79	;'O'
   516  007EB8  70                 	db	112	;'p'
   517  007EB9  63                 	db	99	;'c'
   518  007EBA  61                 	db	97	;'a'
   519  007EBB  6F                 	db	111	;'o'
   520  007EBC  20                 	db	32
   521  007EBD  69                 	db	105	;'i'
   522  007EBE  6E                 	db	110	;'n'
   523  007EBF  76                 	db	118	;'v'
   524  007EC0  61                 	db	97	;'a'
   525  007EC1  6C                 	db	108	;'l'
   526  007EC2  69                 	db	105	;'i'
   527  007EC3  64                 	db	100	;'d'
   528  007EC4  61                 	db	97	;'a'
   529  007EC5  21                 	db	33
   530  007EC6  0A                 	db	10
   531  007EC7  0D                 	db	13
   532  007EC8  00                 	db	0
   533  007EC9                     STR_35:
   534  007EC9  0D                 	db	13
   535  007ECA  0A                 	db	10
   536  007ECB  4C                 	db	76	;'L'
   537  007ECC  69                 	db	105	;'i'
   538  007ECD  74                 	db	116	;'t'
   539  007ECE  72                 	db	114	;'r'
   540  007ECF  6F                 	db	111	;'o'
   541  007ED0  73                 	db	115	;'s'
   542  007ED1  20                 	db	32
   543  007ED2  28                 	db	40
   544  007ED3  30                 	db	48	;'0'
   545  007ED4  30                 	db	48	;'0'
   546  007ED5  30                 	db	48	;'0'
   547  007ED6  2C                 	db	44
   548  007ED7  30                 	db	48	;'0'
   549  007ED8  29                 	db	41
   550  007ED9  3A                 	db	58	;':'
   551  007EDA  20                 	db	32
   552  007EDB  0D                 	db	13
   553  007EDC  00                 	db	0
   554  007EDD                     STR_18:
   555  007EDD  0D                 	db	13
   556  007EDE  0A                 	db	10
   557  007EDF  41                 	db	65	;'A'
   558  007EE0  62                 	db	98	;'b'
   559  007EE1  61                 	db	97	;'a'
   560  007EE2  73                 	db	115	;'s'
   561  007EE3  74                 	db	116	;'t'
   562  007EE4  65                 	db	101	;'e'
   563  007EE5  63                 	db	99	;'c'
   564  007EE6  65                 	db	101	;'e'
   565  007EE7  6E                 	db	110	;'n'
   566  007EE8  64                 	db	100	;'d'
   567  007EE9  6F                 	db	111	;'o'
   568  007EEA  2E                 	db	46
   569  007EEB  2E                 	db	46
   570  007EEC  2E                 	db	46
   571  007EED  0A                 	db	10
   572  007EEE  0D                 	db	13
   573  007EEF  00                 	db	0
   574  007EF0                     STR_36:
   575  007EF0  0D                 	db	13
   576  007EF1  0A                 	db	10
   577  007EF2  56                 	db	86	;'V'
   578  007EF3  61                 	db	97	;'a'
   579  007EF4  6C                 	db	108	;'l'
   580  007EF5  6F                 	db	111	;'o'
   581  007EF6  72                 	db	114	;'r'
   582  007EF7  20                 	db	32
   583  007EF8  28                 	db	40
   584  007EF9  30                 	db	48	;'0'
   585  007EFA  30                 	db	48	;'0'
   586  007EFB  30                 	db	48	;'0'
   587  007EFC  2C                 	db	44
   588  007EFD  30                 	db	48	;'0'
   589  007EFE  29                 	db	41
   590  007EFF  3A                 	db	58	;':'
   591  007F00  20                 	db	32
   592  007F01  0D                 	db	13
   593  007F02  00                 	db	0
   594  007F03                     STR_9:
   595  007F03  28                 	db	40
   596  007F04  64                 	db	100	;'d'
   597  007F05  33                 	db	51	;'3'
   598  007F06  29                 	db	41
   599  007F07  47                 	db	71	;'G'
   600  007F08  61                 	db	97	;'a'
   601  007F09  73                 	db	115	;'s'
   602  007F0A  6F                 	db	111	;'o'
   603  007F0B  20                 	db	32
   604  007F0C  28                 	db	40
   605  007F0D  64                 	db	100	;'d'
   606  007F0E  34                 	db	52	;'4'
   607  007F0F  29                 	db	41
   608  007F10  45                 	db	69	;'E'
   609  007F11  74                 	db	116	;'t'
   610  007F12  61                 	db	97	;'a'
   611  007F13  00                 	db	0
   612  007F14                     STR_15:
   613  007F14  70                 	db	112	;'p'
   614  007F15  61                 	db	97	;'a'
   615  007F16  72                 	db	114	;'r'
   616  007F17  61                 	db	97	;'a'
   617  007F18  20                 	db	32
   618  007F19  63                 	db	99	;'c'
   619  007F1A  6F                 	db	111	;'o'
   620  007F1B  6D                 	db	109	;'m'
   621  007F1C  65                 	db	101	;'e'
   622  007F1D  63                 	db	99	;'c'
   623  007F1E  61                 	db	97	;'a'
   624  007F1F  72                 	db	114	;'r'
   625  007F20  2E                 	db	46
   626  007F21  2E                 	db	46
   627  007F22  2E                 	db	46
   628  007F23  00                 	db	0
   629  007F24                     STR_17:
   630  007F24  41                 	db	65	;'A'
   631  007F25  62                 	db	98	;'b'
   632  007F26  61                 	db	97	;'a'
   633  007F27  73                 	db	115	;'s'
   634  007F28  74                 	db	116	;'t'
   635  007F29  65                 	db	101	;'e'
   636  007F2A  63                 	db	99	;'c'
   637  007F2B  65                 	db	101	;'e'
   638  007F2C  6E                 	db	110	;'n'
   639  007F2D  64                 	db	100	;'d'
   640  007F2E  6F                 	db	111	;'o'
   641  007F2F  2E                 	db	46
   642  007F30  2E                 	db	46
   643  007F31  2E                 	db	46
   644  007F32  00                 	db	0
   645  007F33                     STR_2:
   646  007F33  20                 	db	32
   647  007F34  20                 	db	32
   648  007F35  43                 	db	67	;'C'
   649  007F36  6F                 	db	111	;'o'
   650  007F37  6D                 	db	109	;'m'
   651  007F38  62                 	db	98	;'b'
   652  007F39  75                 	db	117	;'u'
   653  007F3A  73                 	db	115	;'s'
   654  007F3B  74                 	db	116	;'t'
   655  007F3C  69                 	db	105	;'i'
   656  007F3D  76                 	db	118	;'v'
   657  007F3E  65                 	db	101	;'e'
   658  007F3F  6C                 	db	108	;'l'
   659  007F40  3A                 	db	58	;':'
   660  007F41  00                 	db	0
   661  007F42                     STR_29:
   662  007F42  50                 	db	80	;'P'
   663  007F43  72                 	db	114	;'r'
   664  007F44  65                 	db	101	;'e'
   665  007F45  63                 	db	99	;'c'
   666  007F46  6F                 	db	111	;'o'
   667  007F47  3A                 	db	58	;':'
   668  007F48  20                 	db	32
   669  007F49  52                 	db	82	;'R'
   670  007F4A  24                 	db	36
   671  007F4B  20                 	db	32
   672  007F4C  36                 	db	54	;'6'
   673  007F4D  2C                 	db	44
   674  007F4E  32                 	db	50	;'2'
   675  007F4F  00                 	db	0
   676  007F50                     STR_33:
   677  007F50  50                 	db	80	;'P'
   678  007F51  72                 	db	114	;'r'
   679  007F52  65                 	db	101	;'e'
   680  007F53  63                 	db	99	;'c'
   681  007F54  6F                 	db	111	;'o'
   682  007F55  3A                 	db	58	;':'
   683  007F56  20                 	db	32
   684  007F57  52                 	db	82	;'R'
   685  007F58  24                 	db	36
   686  007F59  20                 	db	32
   687  007F5A  34                 	db	52	;'4'
   688  007F5B  2C                 	db	44
   689  007F5C  37                 	db	55	;'7'
   690  007F5D  00                 	db	0
   691  007F5E                     STR_31:
   692  007F5E  50                 	db	80	;'P'
   693  007F5F  72                 	db	114	;'r'
   694  007F60  65                 	db	101	;'e'
   695  007F61  63                 	db	99	;'c'
   696  007F62  6F                 	db	111	;'o'
   697  007F63  3A                 	db	58	;':'
   698  007F64  20                 	db	32
   699  007F65  52                 	db	82	;'R'
   700  007F66  24                 	db	36
   701  007F67  20                 	db	32
   702  007F68  34                 	db	52	;'4'
   703  007F69  2C                 	db	44
   704  007F6A  39                 	db	57	;'9'
   705  007F6B  00                 	db	0
   706  007F6C                     STR_25:
   707  007F6C  4F                 	db	79	;'O'
   708  007F6D  62                 	db	98	;'b'
   709  007F6E  72                 	db	114	;'r'
   710  007F6F  69                 	db	105	;'i'
   711  007F70  67                 	db	103	;'g'
   712  007F71  61                 	db	97	;'a'
   713  007F72  64                 	db	100	;'d'
   714  007F73  6F                 	db	111	;'o'
   715  007F74  20                 	db	32
   716  007F75  70                 	db	112	;'p'
   717  007F76  65                 	db	101	;'e'
   718  007F77  6C                 	db	108	;'l'
   719  007F78  61                 	db	97	;'a'
   720  007F79  00                 	db	0
   721  007F7A                     STR_12:
   722  007F7A  20                 	db	32
   723  007F7B  20                 	db	32
   724  007F7C  20                 	db	32
   725  007F7D  49                 	db	73	;'I'
   726  007F7E  6E                 	db	110	;'n'
   727  007F7F  76                 	db	118	;'v'
   728  007F80  61                 	db	97	;'a'
   729  007F81  6C                 	db	108	;'l'
   730  007F82  69                 	db	105	;'i'
   731  007F83  64                 	db	100	;'d'
   732  007F84  61                 	db	97	;'a'
   733  007F85  21                 	db	33
   734  007F86  00                 	db	0
   735  007F87                     STR_26:
   736  007F87  70                 	db	112	;'p'
   737  007F88  72                 	db	114	;'r'
   738  007F89  65                 	db	101	;'e'
   739  007F8A  66                 	db	102	;'f'
   740  007F8B  65                 	db	101	;'e'
   741  007F8C  72                 	db	114	;'r'
   742  007F8D  65                 	db	101	;'e'
   743  007F8E  6E                 	db	110	;'n'
   744  007F8F  63                 	db	99	;'c'
   745  007F90  69                 	db	105	;'i'
   746  007F91  61                 	db	97	;'a'
   747  007F92  21                 	db	33
   748  007F93  00                 	db	0
   749  007F94                     STR_1:
   750  007F94  20                 	db	32
   751  007F95  20                 	db	32
   752  007F96  20                 	db	32
   753  007F97  20                 	db	32
   754  007F98  42                 	db	66	;'B'
   755  007F99  6F                 	db	111	;'o'
   756  007F9A  6D                 	db	109	;'m'
   757  007F9B  62                 	db	98	;'b'
   758  007F9C  61                 	db	97	;'a'
   759  007F9D  20                 	db	32
   760  007F9E  64                 	db	100	;'d'
   761  007F9F  65                 	db	101	;'e'
   762  007FA0  00                 	db	0
   763  007FA1                     STR_23:
   764  007FA1  0D                 	db	13
   765  007FA2  0A                 	db	10
   766  007FA3  4C                 	db	76	;'L'
   767  007FA4  69                 	db	105	;'i'
   768  007FA5  74                 	db	116	;'t'
   769  007FA6  72                 	db	114	;'r'
   770  007FA7  6F                 	db	111	;'o'
   771  007FA8  73                 	db	115	;'s'
   772  007FA9  3A                 	db	58	;':'
   773  007FAA  20                 	db	32
   774  007FAB  0D                 	db	13
   775  007FAC  00                 	db	0
   776  007FAD                     STR_14:
   777  007FAD  41                 	db	65	;'A'
   778  007FAE  70                 	db	112	;'p'
   779  007FAF  65                 	db	101	;'e'
   780  007FB0  72                 	db	114	;'r'
   781  007FB1  74                 	db	116	;'t'
   782  007FB2  65                 	db	101	;'e'
   783  007FB3  20                 	db	32
   784  007FB4  28                 	db	40
   785  007FB5  64                 	db	100	;'d'
   786  007FB6  37                 	db	55	;'7'
   787  007FB7  29                 	db	41
   788  007FB8  00                 	db	0
   789  007FB9                     STR_19:
   790  007FB9  50                 	db	80	;'P'
   791  007FBA  72                 	db	114	;'r'
   792  007FBB  65                 	db	101	;'e'
   793  007FBC  63                 	db	99	;'c'
   794  007FBD  6F                 	db	111	;'o'
   795  007FBE  3A                 	db	58	;':'
   796  007FBF  20                 	db	32
   797  007FC0  52                 	db	82	;'R'
   798  007FC1  24                 	db	36
   799  007FC2  20                 	db	32
   800  007FC3  00                 	db	0
   801  007FC4                     STR_11:
   802  007FC4  20                 	db	32
   803  007FC5  20                 	db	32
   804  007FC6  20                 	db	32
   805  007FC7  20                 	db	32
   806  007FC8  20                 	db	32
   807  007FC9  4F                 	db	79	;'O'
   808  007FCA  70                 	db	112	;'p'
   809  007FCB  63                 	db	99	;'c'
   810  007FCC  61                 	db	97	;'a'
   811  007FCD  6F                 	db	111	;'o'
   812  007FCE  00                 	db	0
   813  007FCF                     STR_20:
   814  007FCF  4C                 	db	76	;'L'
   815  007FD0  69                 	db	105	;'i'
   816  007FD1  74                 	db	116	;'t'
   817  007FD2  72                 	db	114	;'r'
   818  007FD3  6F                 	db	111	;'o'
   819  007FD4  73                 	db	115	;'s'
   820  007FD5  3A                 	db	58	;':'
   821  007FD6  20                 	db	32
   822  007FD7  00                 	db	0
   823  007FD8                     STR_28:
   824  007FD8  47                 	db	71	;'G'
   825  007FD9  61                 	db	97	;'a'
   826  007FDA  73                 	db	115	;'s'
   827  007FDB  6F                 	db	111	;'o'
   828  007FDC  6C                 	db	108	;'l'
   829  007FDD  69                 	db	105	;'i'
   830  007FDE  6E                 	db	110	;'n'
   831  007FDF  61                 	db	97	;'a'
   832  007FE0  00                 	db	0
   833  007FE1                     STR_10:
   834  007FE1  28                 	db	40
   835  007FE2  64                 	db	100	;'d'
   836  007FE3  35                 	db	53	;'5'
   837  007FE4  29                 	db	41
   838  007FE5  44                 	db	68	;'D'
   839  007FE6  69                 	db	105	;'i'
   840  007FE7  65                 	db	101	;'e'
   841  007FE8  73                 	db	115	;'s'
   842  007FE9  00                 	db	0
   843  007FEA                     STR_32:
   844  007FEA  44                 	db	68	;'D'
   845  007FEB  69                 	db	105	;'i'
   846  007FEC  65                 	db	101	;'e'
   847  007FED  73                 	db	115	;'s'
   848  007FEE  65                 	db	101	;'e'
   849  007FEF  6C                 	db	108	;'l'
   850  007FF0  00                 	db	0
   851  007FF1                     STR_30:
   852  007FF1  45                 	db	69	;'E'
   853  007FF2  74                 	db	116	;'t'
   854  007FF3  61                 	db	97	;'a'
   855  007FF4  6E                 	db	110	;'n'
   856  007FF5  6F                 	db	111	;'o'
   857  007FF6  6C                 	db	108	;'l'
   858  007FF7  00                 	db	0
   859  007FF8                     STR_24:
   860  007FF8  20                 	db	32
   861  007FF9  4C                 	db	76	;'L'
   862  007FFA  0A                 	db	10
   863  007FFB  00                 	db	0
   864  007FFC                     STR_21:
   865  007FFC  20                 	db	32
   866  007FFD  4C                 	db	76	;'L'
   867  007FFE  00                 	db	0
   868  007FFF  00                 	db	0	; dummy byte at the end
   869  0000                     
   870                           ; #config settings
   871                           
   872                           	psect	cinit
   873  004BAA                     __pcinit:
   874                           	callstack 0
   875  004BAA                     start_initialization:
   876                           	callstack 0
   877  004BAA                     __initialization:
   878                           	callstack 0
   879                           
   880                           ; Clear objects allocated to BANK0 (6 bytes)
   881  004BAA  0100               	movlb	0
   882  004BAC  6B85               	clrf	(__pbssBANK0+5)& (0+255),b
   883  004BAE  6B84               	clrf	(__pbssBANK0+4)& (0+255),b
   884  004BB0  6B83               	clrf	(__pbssBANK0+3)& (0+255),b
   885  004BB2  6B82               	clrf	(__pbssBANK0+2)& (0+255),b
   886  004BB4  6B81               	clrf	(__pbssBANK0+1)& (0+255),b
   887  004BB6  6B80               	clrf	__pbssBANK0& (0+255),b
   888                           
   889                           ; Clear objects allocated to COMRAM (6 bytes)
   890  004BB8  6A7E               	clrf	(__pbssCOMRAM+5)& (0+255),c
   891  004BBA  6A7D               	clrf	(__pbssCOMRAM+4)& (0+255),c
   892  004BBC  6A7C               	clrf	(__pbssCOMRAM+3)& (0+255),c
   893  004BBE  6A7B               	clrf	(__pbssCOMRAM+2)& (0+255),c
   894  004BC0  6A7A               	clrf	(__pbssCOMRAM+1)& (0+255),c
   895  004BC2  6A79               	clrf	__pbssCOMRAM& (0+255),c
   896  004BC4                     end_of_initialization:
   897                           	callstack 0
   898  004BC4                     __end_of__initialization:
   899                           	callstack 0
   900  004BC4  0E00               	movlw	low (__Lmediumconst shr (0+16))
   901  004BC6  6EF8               	movwf	tblptru,c
   902  004BC8  0100               	movlb	0
   903  004BCA  EFE1  F029         	goto	_main	;jump to C main() function
   904                           
   905                           	psect	bssCOMRAM
   906  000079                     __pbssCOMRAM:
   907                           	callstack 0
   908  000079                     _v3:
   909                           	callstack 0
   910  000079                     	ds	1
   911  00007A                     _v2:
   912                           	callstack 0
   913  00007A                     	ds	1
   914  00007B                     _v1:
   915                           	callstack 0
   916  00007B                     	ds	1
   917  00007C                     _v0:
   918                           	callstack 0
   919  00007C                     	ds	1
   920  00007D                     _display:
   921                           	callstack 0
   922  00007D                     	ds	1
   923  00007E                     kpDebounce@tempo:
   924                           	callstack 0
   925  00007E                     	ds	1
   926                           
   927                           	psect	bssBANK0
   928  000080                     __pbssBANK0:
   929                           	callstack 0
   930  000080                     kpDebounce@oldRead:
   931                           	callstack 0
   932  000080                     	ds	2
   933  000082                     kpDebounce@newRead:
   934                           	callstack 0
   935  000082                     	ds	2
   936  000084                     _keys:
   937                           	callstack 0
   938  000084                     	ds	2
   939                           
   940                           	psect	cstackCOMRAM
   941  000001                     __pcstackCOMRAM:
   942                           	callstack 0
   943  000001                     ??_kpReadKey:
   944  000001                     ?_digitalRead:
   945                           	callstack 0
   946  000001                     ?___fldiv:
   947                           	callstack 0
   948  000001                     serial_tx@val:
   949                           	callstack 0
   950  000001                     delayMicro@a:
   951                           	callstack 0
   952  000001                     delayMili@a:
   953                           	callstack 0
   954  000001                     digitalWrite@pin:
   955                           	callstack 0
   956  000001                     digitalRead@pin:
   957                           	callstack 0
   958  000001                     pinMode@pin:
   959                           	callstack 0
   960  000001                     timerReset@tempo:
   961                           	callstack 0
   962  000001                     atraso_ms@num:
   963                           	callstack 0
   964  000001                     ___flge@ff1:
   965                           	callstack 0
   966  000001                     ___fldiv@b:
   967                           	callstack 0
   968                           
   969                           ; 4 bytes @ 0x0
   970  000001                     	ds	1
   971  000002                     serial_tx_str@val:
   972                           	callstack 0
   973                           
   974                           ; 2 bytes @ 0x1
   975  000002                     	ds	1
   976  000003                     ??_digitalRead:
   977  000003                     ??_delayMili:
   978  000003                     digitalWrite@value:
   979                           	callstack 0
   980  000003                     pinMode@type:
   981                           	callstack 0
   982  000003                     timerReset@ciclos:
   983                           	callstack 0
   984  000003                     atraso_ms@i:
   985                           	callstack 0
   986                           
   987                           ; 2 bytes @ 0x2
   988  000003                     	ds	1
   989  000004                     ??_serial_tx_str:
   990  000004                     kpReadKey@i:
   991                           	callstack 0
   992  000004                     delayMili@i:
   993                           	callstack 0
   994                           
   995                           ; 2 bytes @ 0x3
   996  000004                     	ds	1
   997  000005                     ??_pinMode:
   998  000005                     ??_digitalWrite:
   999  000005                     atraso_ms@j:
  1000                           	callstack 0
  1001  000005                     ___flge@ff2:
  1002                           	callstack 0
  1003  000005                     ___fldiv@a:
  1004                           	callstack 0
  1005                           
  1006                           ; 4 bytes @ 0x4
  1007  000005                     	ds	1
  1008  000006                     serial_tx_str@i:
  1009                           	callstack 0
  1010  000006                     atraso_ms@k:
  1011                           	callstack 0
  1012                           
  1013                           ; 1 bytes @ 0x5
  1014  000006                     	ds	1
  1015  000007                     serial_rx@timeout:
  1016                           	callstack 0
  1017  000007                     rgbColor@led:
  1018                           	callstack 0
  1019  000007                     soWrite@value:
  1020                           	callstack 0
  1021                           
  1022                           ; 2 bytes @ 0x6
  1023  000007                     	ds	2
  1024  000009                     ??___fldiv:
  1025  000009                     ??___flge:
  1026  000009                     soWrite@i:
  1027                           	callstack 0
  1028  000009                     serial_rx@to:
  1029                           	callstack 0
  1030                           
  1031                           ; 2 bytes @ 0x8
  1032  000009                     	ds	1
  1033  00000A                     ??_kpDebounce:
  1034  00000A                     ??_ssdUpdate:
  1035  00000A                     pushNibble@rs:
  1036                           	callstack 0
  1037  00000A                     pushByte@rs:
  1038                           	callstack 0
  1039                           
  1040                           ; 2 bytes @ 0x9
  1041  00000A                     	ds	2
  1042  00000C                     ??_pushByte:
  1043  00000C                     pushNibble@value:
  1044                           	callstack 0
  1045                           
  1046                           ; 1 bytes @ 0xB
  1047  00000C                     	ds	1
  1048  00000D                     pushByte@value:
  1049                           	callstack 0
  1050  00000D                     kpDebounce@i:
  1051                           	callstack 0
  1052  00000D                     ___fldiv@rem:
  1053                           	callstack 0
  1054                           
  1055                           ; 4 bytes @ 0xC
  1056  00000D                     	ds	1
  1057  00000E                     lcdCommand@value:
  1058                           	callstack 0
  1059  00000E                     lcdChar@value:
  1060                           	callstack 0
  1061                           
  1062                           ; 1 bytes @ 0xD
  1063  00000E                     	ds	1
  1064  00000F                     lcdString@msg:
  1065                           	callstack 0
  1066                           
  1067                           ; 2 bytes @ 0xE
  1068  00000F                     	ds	2
  1069  000011                     ??_lcdString:
  1070  000011                     ___fldiv@sign:
  1071                           	callstack 0
  1072                           
  1073                           ; 1 bytes @ 0x10
  1074  000011                     	ds	1
  1075  000012                     ___fldiv@new_exp:
  1076                           	callstack 0
  1077                           
  1078                           ; 2 bytes @ 0x11
  1079  000012                     	ds	1
  1080  000013                     lcdString@i:
  1081                           	callstack 0
  1082                           
  1083                           ; 2 bytes @ 0x12
  1084  000013                     	ds	1
  1085  000014                     ___fldiv@grs:
  1086                           	callstack 0
  1087                           
  1088                           ; 4 bytes @ 0x13
  1089  000014                     	ds	1
  1090  000015                     
  1091                           ; 1 bytes @ 0x14
  1092  000015                     	ds	3
  1093  000018                     ___fldiv@bexp:
  1094                           	callstack 0
  1095                           
  1096                           ; 1 bytes @ 0x17
  1097  000018                     	ds	1
  1098  000019                     ___fldiv@aexp:
  1099                           	callstack 0
  1100                           
  1101                           ; 1 bytes @ 0x18
  1102  000019                     	ds	1
  1103  00001A                     ?___fltol:
  1104                           	callstack 0
  1105  00001A                     ___fltol@f1:
  1106                           	callstack 0
  1107                           
  1108                           ; 4 bytes @ 0x19
  1109  00001A                     	ds	4
  1110  00001E                     ??___fltol:
  1111                           
  1112                           ; 1 bytes @ 0x1D
  1113  00001E                     	ds	4
  1114  000022                     ___fltol@sign1:
  1115                           	callstack 0
  1116                           
  1117                           ; 1 bytes @ 0x21
  1118  000022                     	ds	1
  1119  000023                     ___fltol@exp1:
  1120                           	callstack 0
  1121                           
  1122                           ; 1 bytes @ 0x22
  1123  000023                     	ds	1
  1124  000024                     ?___awmod:
  1125                           	callstack 0
  1126  000024                     ___awmod@dividend:
  1127                           	callstack 0
  1128                           
  1129                           ; 2 bytes @ 0x23
  1130  000024                     	ds	2
  1131  000026                     ___awmod@divisor:
  1132                           	callstack 0
  1133                           
  1134                           ; 2 bytes @ 0x25
  1135  000026                     	ds	2
  1136  000028                     ___awmod@counter:
  1137                           	callstack 0
  1138                           
  1139                           ; 1 bytes @ 0x27
  1140  000028                     	ds	1
  1141  000029                     ___awmod@sign:
  1142                           	callstack 0
  1143                           
  1144                           ; 1 bytes @ 0x28
  1145  000029                     	ds	1
  1146  00002A                     ?___wmul:
  1147                           	callstack 0
  1148  00002A                     ssdDigit@pos:
  1149                           	callstack 0
  1150  00002A                     ___wmul@multiplier:
  1151                           	callstack 0
  1152                           
  1153                           ; 2 bytes @ 0x29
  1154  00002A                     	ds	1
  1155  00002B                     ssdDigit@val:
  1156                           	callstack 0
  1157                           
  1158                           ; 1 bytes @ 0x2A
  1159  00002B                     	ds	1
  1160  00002C                     ___wmul@multiplicand:
  1161                           	callstack 0
  1162                           
  1163                           ; 2 bytes @ 0x2B
  1164  00002C                     	ds	2
  1165  00002E                     ___wmul@product:
  1166                           	callstack 0
  1167                           
  1168                           ; 2 bytes @ 0x2D
  1169  00002E                     	ds	2
  1170  000030                     ?___xxtofl:
  1171                           	callstack 0
  1172  000030                     ___xxtofl@val:
  1173                           	callstack 0
  1174                           
  1175                           ; 4 bytes @ 0x2F
  1176  000030                     	ds	4
  1177  000034                     ??___xxtofl:
  1178                           
  1179                           ; 1 bytes @ 0x33
  1180  000034                     	ds	4
  1181  000038                     ___xxtofl@sign:
  1182                           	callstack 0
  1183                           
  1184                           ; 1 bytes @ 0x37
  1185  000038                     	ds	1
  1186  000039                     ___xxtofl@exp:
  1187                           	callstack 0
  1188                           
  1189                           ; 1 bytes @ 0x38
  1190  000039                     	ds	1
  1191  00003A                     ___xxtofl@arg:
  1192                           	callstack 0
  1193                           
  1194                           ; 4 bytes @ 0x39
  1195  00003A                     	ds	4
  1196  00003E                     ?___fladd:
  1197                           	callstack 0
  1198  00003E                     ?___flmul:
  1199                           	callstack 0
  1200  00003E                     ___fladd@b:
  1201                           	callstack 0
  1202  00003E                     ___flmul@b:
  1203                           	callstack 0
  1204                           
  1205                           ; 4 bytes @ 0x3D
  1206  00003E                     	ds	4
  1207  000042                     ___fladd@a:
  1208                           	callstack 0
  1209  000042                     ___flmul@a:
  1210                           	callstack 0
  1211                           
  1212                           ; 4 bytes @ 0x41
  1213  000042                     	ds	4
  1214  000046                     ??___fladd:
  1215  000046                     ??___flmul:
  1216                           
  1217                           ; 1 bytes @ 0x45
  1218  000046                     	ds	4
  1219  00004A                     ___fladd@signs:
  1220                           	callstack 0
  1221  00004A                     ___flmul@sign:
  1222                           	callstack 0
  1223                           
  1224                           ; 1 bytes @ 0x49
  1225  00004A                     	ds	1
  1226  00004B                     ___fladd@aexp:
  1227                           	callstack 0
  1228  00004B                     ___flmul@grs:
  1229                           	callstack 0
  1230                           
  1231                           ; 4 bytes @ 0x4A
  1232  00004B                     	ds	1
  1233  00004C                     ___fladd@bexp:
  1234                           	callstack 0
  1235                           
  1236                           ; 1 bytes @ 0x4B
  1237  00004C                     	ds	1
  1238  00004D                     ___fladd@grs:
  1239                           	callstack 0
  1240                           
  1241                           ; 1 bytes @ 0x4C
  1242  00004D                     	ds	1
  1243  00004E                     abastecimentoBomba@totalIn:
  1244                           	callstack 0
  1245                           
  1246                           ; 4 bytes @ 0x4D
  1247  00004E                     	ds	1
  1248  00004F                     ___flmul@aexp:
  1249                           	callstack 0
  1250                           
  1251                           ; 1 bytes @ 0x4E
  1252  00004F                     	ds	1
  1253  000050                     ___flmul@bexp:
  1254                           	callstack 0
  1255                           
  1256                           ; 1 bytes @ 0x4F
  1257  000050                     	ds	1
  1258  000051                     ___flmul@prod:
  1259                           	callstack 0
  1260                           
  1261                           ; 4 bytes @ 0x50
  1262  000051                     	ds	1
  1263  000052                     abastecimentoBomba@litrosIn:
  1264                           	callstack 0
  1265                           
  1266                           ; 4 bytes @ 0x51
  1267  000052                     	ds	3
  1268  000055                     ___flmul@temp:
  1269                           	callstack 0
  1270                           
  1271                           ; 2 bytes @ 0x54
  1272  000055                     	ds	1
  1273  000056                     abastecimentoBomba@tecla:
  1274                           	callstack 0
  1275                           
  1276                           ; 1 bytes @ 0x55
  1277  000056                     	ds	1
  1278  000057                     abastecimentoBomba@tempo:
  1279                           	callstack 0
  1280                           
  1281                           ; 2 bytes @ 0x56
  1282  000057                     	ds	2
  1283  000059                     abastecimentoBomba@cont:
  1284                           	callstack 0
  1285                           
  1286                           ; 4 bytes @ 0x58
  1287  000059                     	ds	4
  1288  00005D                     ??_selecaoCombustivel:
  1289                           
  1290                           ; 1 bytes @ 0x5C
  1291  00005D                     	ds	4
  1292  000061                     selecaoCombustivel@teclaIn:
  1293                           	callstack 0
  1294                           
  1295                           ; 1 bytes @ 0x60
  1296  000061                     	ds	1
  1297  000062                     selecaoCombustivel@price:
  1298                           	callstack 0
  1299                           
  1300                           ; 4 bytes @ 0x61
  1301  000062                     	ds	4
  1302  000066                     selecaoCombustivel@buffer:
  1303                           	callstack 0
  1304                           
  1305                           ; 5 bytes @ 0x65
  1306  000066                     	ds	5
  1307  00006B                     selecaoCombustivel@litros:
  1308                           	callstack 0
  1309                           
  1310                           ; 4 bytes @ 0x6A
  1311  00006B                     	ds	4
  1312  00006F                     selecaoCombustivel@total:
  1313                           	callstack 0
  1314                           
  1315                           ; 4 bytes @ 0x6E
  1316  00006F                     	ds	4
  1317  000073                     selecaoCombustivel@op:
  1318                           	callstack 0
  1319                           
  1320                           ; 1 bytes @ 0x72
  1321  000073                     	ds	1
  1322  000074                     selecaoCombustivel@i:
  1323                           	callstack 0
  1324                           
  1325                           ; 1 bytes @ 0x73
  1326  000074                     	ds	1
  1327  000075                     ??_main:
  1328                           
  1329                           ; 1 bytes @ 0x74
  1330  000075                     	ds	2
  1331  000077                     main@slot:
  1332                           	callstack 0
  1333                           
  1334                           ; 1 bytes @ 0x76
  1335  000077                     	ds	1
  1336  000078                     main@tecla:
  1337                           	callstack 0
  1338                           
  1339                           ; 1 bytes @ 0x77
  1340  000078                     	ds	1
  1341                           
  1342 ;;
  1343 ;;Main: autosize = 0, tempsize = 2, incstack = 0, save=0
  1344 ;;
  1345 ;; *************** function _main *****************
  1346 ;; Defined at:
  1347 ;;		line 33 in file "main.c"
  1348 ;; Parameters:    Size  Location     Type
  1349 ;;		None
  1350 ;; Auto vars:     Size  Location     Type
  1351 ;;  tecla           1  119[COMRAM] unsigned char 
  1352 ;;  slot            1  118[COMRAM] unsigned char 
  1353 ;; Return value:  Size  Location     Type
  1354 ;;                  1    wreg      void 
  1355 ;; Registers used:
  1356 ;;		wreg, fsr2l, fsr2h, status,2, status,0, tblptrl, tblptrh, tblptru, prodl, prodh, cstack
  1357 ;; Tracked objects:
  1358 ;;		On entry : 0/0
  1359 ;;		On exit  : 0/0
  1360 ;;		Unchanged: 0/0
  1361 ;; Data sizes:     COMRAM   BANK0   BANK1   BANK2   BANK3   BANK4   BANK5
  1362 ;;      Params:         0       0       0       0       0       0       0
  1363 ;;      Locals:         2       0       0       0       0       0       0
  1364 ;;      Temps:          2       0       0       0       0       0       0
  1365 ;;      Totals:         4       0       0       0       0       0       0
  1366 ;;Total ram usage:        4 bytes
  1367 ;; Hardware stack levels required when called: 8
  1368 ;; This function calls:
  1369 ;;		_atraso_ms
  1370 ;;		_kpDebounce
  1371 ;;		_kpInit
  1372 ;;		_kpReadKey
  1373 ;;		_lcdCommand
  1374 ;;		_lcdInit
  1375 ;;		_lcdString
  1376 ;;		_rgbInit
  1377 ;;		_selecaoCombustivel
  1378 ;;		_serial_init
  1379 ;;		_serial_tx_str
  1380 ;;		_ssdInit
  1381 ;;		_telaInicial
  1382 ;;		_timerInit
  1383 ;; This function is called by:
  1384 ;;		Startup code after reset
  1385 ;; This function uses a non-reentrant model
  1386 ;;
  1387                           
  1388                           	psect	text0
  1389  0053C2                     __ptext0:
  1390                           	callstack 0
  1391  0053C2                     _main:
  1392                           	callstack 23
  1393  0053C2                     
  1394                           ;main.c: 34:     char tecla, slot;;main.c: 47:     lcdInit();
  1395  0053C2  EC87  F029         	call	_lcdInit	;wreg free
  1396                           
  1397                           ;main.c: 48:     rgbInit();
  1398  0053C6  EC87  F026         	call	_rgbInit	;wreg free
  1399                           
  1400                           ;main.c: 49:     kpInit();
  1401  0053CA  EC4F  F026         	call	_kpInit	;wreg free
  1402  0053CE                     
  1403                           ;main.c: 50:     serial_init();
  1404  0053CE  EC91  F025         	call	_serial_init	;wreg free
  1405  0053D2                     
  1406                           ;main.c: 51:     ssdInit();
  1407  0053D2  EC63  F027         	call	_ssdInit	;wreg free
  1408  0053D6                     
  1409                           ;main.c: 52:     timerInit();
  1410  0053D6  EC85  F025         	call	_timerInit	;wreg free
  1411  0053DA                     
  1412                           ;main.c: 62:     lcdCommand(0x80);
  1413  0053DA  0E80               	movlw	128
  1414  0053DC  ECA6  F025         	call	_lcdCommand
  1415  0053E0                     
  1416                           ;main.c: 63:     lcdString("    Bomba de");
  1417  0053E0  0E94               	movlw	low STR_1
  1418  0053E2  6E0F               	movwf	lcdString@msg^0,c
  1419  0053E4  0E7F               	movlw	high STR_1
  1420  0053E6  6E10               	movwf	(lcdString@msg+1)^0,c
  1421  0053E8  EC38  F027         	call	_lcdString	;wreg free
  1422  0053EC                     
  1423                           ;main.c: 64:     lcdCommand(0xC0);
  1424  0053EC  0EC0               	movlw	192
  1425  0053EE  ECA6  F025         	call	_lcdCommand
  1426  0053F2                     
  1427                           ;main.c: 65:     lcdString("  Combustivel:");
  1428  0053F2  0E33               	movlw	low STR_2
  1429  0053F4  6E0F               	movwf	lcdString@msg^0,c
  1430  0053F6  0E7F               	movlw	high STR_2
  1431  0053F8  6E10               	movwf	(lcdString@msg+1)^0,c
  1432  0053FA  EC38  F027         	call	_lcdString	;wreg free
  1433  0053FE                     
  1434                           ;main.c: 66:     serial_tx_str("\r\nPicSimLab-Bomba de combustivel\n\r");
  1435  0053FE  0EC5               	movlw	low STR_3
  1436  005400  6E02               	movwf	serial_tx_str@val^0,c
  1437  005402  0E7D               	movlw	high STR_3
  1438  005404  6E03               	movwf	(serial_tx_str@val+1)^0,c
  1439  005406  EC10  F027         	call	_serial_tx_str	;wreg free
  1440  00540A                     
  1441                           ;main.c: 69:     atraso_ms(5000);
  1442  00540A  0E13               	movlw	19
  1443  00540C  6E02               	movwf	(atraso_ms@num+1)^0,c
  1444  00540E  0E88               	movlw	136
  1445  005410  6E01               	movwf	atraso_ms@num^0,c
  1446  005412  ECE7  F027         	call	_atraso_ms	;wreg free
  1447  005416  EF25  F02A         	goto	l3864
  1448  00541A                     l3848:
  1449                           
  1450                           ;main.c: 78:                 telaInicial();
  1451  00541A  EC19  F028         	call	_telaInicial	;wreg free
  1452  00541E                     
  1453                           ;main.c: 79:                 slot = 1;
  1454  00541E  0E01               	movlw	1
  1455  005420  6E77               	movwf	main@slot^0,c
  1456                           
  1457                           ;main.c: 80:                 break;
  1458  005422  EF3A  F02A         	goto	l3866
  1459  005426                     l3852:
  1460                           
  1461                           ;main.c: 84:                 tecla = kpReadKey();
  1462  005426  EC53  F028         	call	_kpReadKey	;wreg free
  1463  00542A  6E78               	movwf	main@tecla^0,c
  1464  00542C                     
  1465                           ;main.c: 87:                 if (tecla != 0) {
  1466  00542C  5078               	movf	main@tecla^0,w,c
  1467  00542E  B4D8               	btfsc	status,2,c
  1468  005430  EF1C  F02A         	goto	u4361
  1469  005434  EF1E  F02A         	goto	u4360
  1470  005438                     u4361:
  1471  005438  EF3A  F02A         	goto	l3866
  1472  00543C                     u4360:
  1473  00543C                     
  1474                           ;main.c: 89:                     selecaoCombustivel(tecla);
  1475  00543C  5078               	movf	main@tecla^0,w,c
  1476  00543E  ECB9  F036         	call	_selecaoCombustivel
  1477  005442                     l3858:
  1478                           
  1479                           ;main.c: 90:                     slot = 0;
  1480  005442  0E00               	movlw	0
  1481  005444  6E77               	movwf	main@slot^0,c
  1482  005446  EF3A  F02A         	goto	l3866
  1483  00544A                     l3864:
  1484  00544A  5077               	movf	main@slot^0,w,c
  1485  00544C  6E75               	movwf	??_main^0,c
  1486  00544E  6A76               	clrf	(??_main+1)^0,c
  1487                           
  1488                           ; Switch on 2 bytes has been partitioned into a top level switch of size 1, and 1 sub-sw
      +                          itches
  1489                           ; Switch size 1, requested type "simple"
  1490                           ; Number of cases is 1, Range of values is 0 to 0
  1491                           ; switch strategies available:
  1492                           ; Name         Instructions Cycles
  1493                           ; simple_byte            4     3 (average)
  1494                           ;	Chosen strategy is simple_byte
  1495  005450  5076               	movf	(??_main+1)^0,w,c
  1496  005452  0A00               	xorlw	0	; case 0
  1497  005454  B4D8               	btfsc	status,2,c
  1498  005456  EF2F  F02A         	goto	l3932
  1499  00545A  EF21  F02A         	goto	l3858
  1500  00545E                     l3932:
  1501                           
  1502                           ; Switch size 1, requested type "simple"
  1503                           ; Number of cases is 2, Range of values is 0 to 1
  1504                           ; switch strategies available:
  1505                           ; Name         Instructions Cycles
  1506                           ; simple_byte            7     4 (average)
  1507                           ;	Chosen strategy is simple_byte
  1508  00545E  5075               	movf	??_main^0,w,c
  1509  005460  0A00               	xorlw	0	; case 0
  1510  005462  B4D8               	btfsc	status,2,c
  1511  005464  EF0D  F02A         	goto	l3848
  1512  005468  0A01               	xorlw	1	; case 1
  1513  00546A  B4D8               	btfsc	status,2,c
  1514  00546C  EF13  F02A         	goto	l3852
  1515  005470  EF21  F02A         	goto	l3858
  1516  005474                     l3866:
  1517                           
  1518                           ;main.c: 100:         kpDebounce();
  1519  005474  EC45  F02B         	call	_kpDebounce	;wreg free
  1520                           
  1521                           ;main.c: 102:     }
  1522  005478  EF25  F02A         	goto	l3864
  1523  00547C  EF00  F000         	goto	start
  1524  005480                     __end_of_main:
  1525                           	callstack 0
  1526                           
  1527 ;; *************** function _timerInit *****************
  1528 ;; Defined at:
  1529 ;;		line 55 in file "timer.c"
  1530 ;; Parameters:    Size  Location     Type
  1531 ;;		None
  1532 ;; Auto vars:     Size  Location     Type
  1533 ;;		None
  1534 ;; Return value:  Size  Location     Type
  1535 ;;                  1    wreg      void 
  1536 ;; Registers used:
  1537 ;;		wreg, status,2, status,0
  1538 ;; Tracked objects:
  1539 ;;		On entry : 0/0
  1540 ;;		On exit  : 0/0
  1541 ;;		Unchanged: 0/0
  1542 ;; Data sizes:     COMRAM   BANK0   BANK1   BANK2   BANK3   BANK4   BANK5
  1543 ;;      Params:         0       0       0       0       0       0       0
  1544 ;;      Locals:         0       0       0       0       0       0       0
  1545 ;;      Temps:          0       0       0       0       0       0       0
  1546 ;;      Totals:         0       0       0       0       0       0       0
  1547 ;;Total ram usage:        0 bytes
  1548 ;; Hardware stack levels used: 1
  1549 ;; This function calls:
  1550 ;;		Nothing
  1551 ;; This function is called by:
  1552 ;;		_main
  1553 ;; This function uses a non-reentrant model
  1554 ;;
  1555                           
  1556                           	psect	text1
  1557  004B0A                     __ptext1:
  1558                           	callstack 0
  1559  004B0A                     _timerInit:
  1560                           	callstack 30
  1561  004B0A                     
  1562                           ;timer.c: 57:  T0CON = 0b00001000;
  1563  004B0A  0E08               	movlw	8
  1564  004B0C  6ED5               	movwf	213,c	;volatile
  1565  004B0E                     
  1566                           ;timer.c: 58:  ((T0CON) |= (1<<(7)));
  1567  004B0E  8ED5               	bsf	213,7,c	;volatile
  1568  004B10  0012               	return		;funcret
  1569  004B12                     __end_of_timerInit:
  1570                           	callstack 0
  1571                           
  1572 ;; *************** function _telaInicial *****************
  1573 ;; Defined at:
  1574 ;;		line 21 in file "bombaComb.c"
  1575 ;; Parameters:    Size  Location     Type
  1576 ;;		None
  1577 ;; Auto vars:     Size  Location     Type
  1578 ;;		None
  1579 ;; Return value:  Size  Location     Type
  1580 ;;                  1    wreg      void 
  1581 ;; Registers used:
  1582 ;;		wreg, status,2, status,0, tblptrl, tblptrh, tblptru, cstack
  1583 ;; Tracked objects:
  1584 ;;		On entry : 0/0
  1585 ;;		On exit  : 0/0
  1586 ;;		Unchanged: 0/0
  1587 ;; Data sizes:     COMRAM   BANK0   BANK1   BANK2   BANK3   BANK4   BANK5
  1588 ;;      Params:         0       0       0       0       0       0       0
  1589 ;;      Locals:         0       0       0       0       0       0       0
  1590 ;;      Temps:          0       0       0       0       0       0       0
  1591 ;;      Totals:         0       0       0       0       0       0       0
  1592 ;;Total ram usage:        0 bytes
  1593 ;; Hardware stack levels used: 1
  1594 ;; Hardware stack levels required when called: 6
  1595 ;; This function calls:
  1596 ;;		_lcdCommand
  1597 ;;		_lcdString
  1598 ;;		_rgbColor
  1599 ;;		_serial_tx_str
  1600 ;; This function is called by:
  1601 ;;		_main
  1602 ;; This function uses a non-reentrant model
  1603 ;;
  1604                           
  1605                           	psect	text2
  1606  005032                     __ptext2:
  1607                           	callstack 0
  1608  005032                     _telaInicial:
  1609                           	callstack 24
  1610  005032                     
  1611                           ;bombaComb.c: 24:     rgbColor(1);
  1612  005032  0E00               	movlw	0
  1613  005034  6E08               	movwf	(rgbColor@led+1)^0,c
  1614  005036  0E01               	movlw	1
  1615  005038  6E07               	movwf	rgbColor@led^0,c
  1616  00503A  EC2F  F029         	call	_rgbColor	;wreg free
  1617  00503E                     
  1618                           ;bombaComb.c: 27:     serial_tx_str("\r\nCombustiveis disponiveis:\n\r");
  1619  00503E  0E07               	movlw	low STR_4
  1620  005040  6E02               	movwf	serial_tx_str@val^0,c
  1621  005042  0E7E               	movlw	high STR_4
  1622  005044  6E03               	movwf	(serial_tx_str@val+1)^0,c
  1623  005046  EC10  F027         	call	_serial_tx_str	;wreg free
  1624  00504A                     
  1625                           ;bombaComb.c: 28:     serial_tx_str("\r(d3) - Gasolina R$ 6,2\n\r");
  1626  00504A  0E25               	movlw	low STR_5
  1627  00504C  6E02               	movwf	serial_tx_str@val^0,c
  1628  00504E  0E7E               	movlw	high STR_5
  1629  005050  6E03               	movwf	(serial_tx_str@val+1)^0,c
  1630  005052  EC10  F027         	call	_serial_tx_str	;wreg free
  1631  005056                     
  1632                           ;bombaComb.c: 29:     serial_tx_str("\r(d4) - Etanol R$ 4,9\n\r");
  1633  005056  0E88               	movlw	low STR_6
  1634  005058  6E02               	movwf	serial_tx_str@val^0,c
  1635  00505A  0E7E               	movlw	high STR_6
  1636  00505C  6E03               	movwf	(serial_tx_str@val+1)^0,c
  1637  00505E  EC10  F027         	call	_serial_tx_str	;wreg free
  1638  005062                     
  1639                           ;bombaComb.c: 30:     serial_tx_str("\r(d5) - Diesel R$ 4,7\n\r");
  1640  005062  0E70               	movlw	low STR_7
  1641  005064  6E02               	movwf	serial_tx_str@val^0,c
  1642  005066  0E7E               	movlw	high STR_7
  1643  005068  6E03               	movwf	(serial_tx_str@val+1)^0,c
  1644  00506A  EC10  F027         	call	_serial_tx_str	;wreg free
  1645  00506E                     
  1646                           ;bombaComb.c: 31:     serial_tx_str("\rEscolha uma opcao...\n\r");
  1647  00506E  0E58               	movlw	low STR_8
  1648  005070  6E02               	movwf	serial_tx_str@val^0,c
  1649  005072  0E7E               	movlw	high STR_8
  1650  005074  6E03               	movwf	(serial_tx_str@val+1)^0,c
  1651  005076  EC10  F027         	call	_serial_tx_str	;wreg free
  1652  00507A                     
  1653                           ;bombaComb.c: 34:     lcdCommand(0x01);
  1654  00507A  0E01               	movlw	1
  1655  00507C  ECA6  F025         	call	_lcdCommand
  1656  005080                     
  1657                           ;bombaComb.c: 35:     lcdCommand(0x80);
  1658  005080  0E80               	movlw	128
  1659  005082  ECA6  F025         	call	_lcdCommand
  1660  005086                     
  1661                           ;bombaComb.c: 36:     lcdString("(d3)Gaso (d4)Eta");
  1662  005086  0E03               	movlw	low STR_9
  1663  005088  6E0F               	movwf	lcdString@msg^0,c
  1664  00508A  0E7F               	movlw	high STR_9
  1665  00508C  6E10               	movwf	(lcdString@msg+1)^0,c
  1666  00508E  EC38  F027         	call	_lcdString	;wreg free
  1667                           
  1668                           ;bombaComb.c: 37:     lcdCommand(0xC0);
  1669  005092  0EC0               	movlw	192
  1670  005094  ECA6  F025         	call	_lcdCommand
  1671  005098                     
  1672                           ;bombaComb.c: 38:     lcdString("(d5)Dies");
  1673  005098  0EE1               	movlw	low STR_10
  1674  00509A  6E0F               	movwf	lcdString@msg^0,c
  1675  00509C  0E7F               	movlw	high STR_10
  1676  00509E  6E10               	movwf	(lcdString@msg+1)^0,c
  1677  0050A0  EC38  F027         	call	_lcdString	;wreg free
  1678  0050A4  0012               	return		;funcret
  1679  0050A6                     __end_of_telaInicial:
  1680                           	callstack 0
  1681                           
  1682 ;; *************** function _ssdInit *****************
  1683 ;; Defined at:
  1684 ;;		line 94 in file "ssd.c"
  1685 ;; Parameters:    Size  Location     Type
  1686 ;;		None
  1687 ;; Auto vars:     Size  Location     Type
  1688 ;;		None
  1689 ;; Return value:  Size  Location     Type
  1690 ;;                  1    wreg      void 
  1691 ;; Registers used:
  1692 ;;		wreg, status,2, status,0, cstack
  1693 ;; Tracked objects:
  1694 ;;		On entry : 0/0
  1695 ;;		On exit  : 0/0
  1696 ;;		Unchanged: 0/0
  1697 ;; Data sizes:     COMRAM   BANK0   BANK1   BANK2   BANK3   BANK4   BANK5
  1698 ;;      Params:         0       0       0       0       0       0       0
  1699 ;;      Locals:         0       0       0       0       0       0       0
  1700 ;;      Temps:          0       0       0       0       0       0       0
  1701 ;;      Totals:         0       0       0       0       0       0       0
  1702 ;;Total ram usage:        0 bytes
  1703 ;; Hardware stack levels used: 1
  1704 ;; Hardware stack levels required when called: 2
  1705 ;; This function calls:
  1706 ;;		_pinMode
  1707 ;;		_soInit
  1708 ;; This function is called by:
  1709 ;;		_main
  1710 ;; This function uses a non-reentrant model
  1711 ;;
  1712                           
  1713                           	psect	text3
  1714  004EC6                     __ptext3:
  1715                           	callstack 0
  1716  004EC6                     _ssdInit:
  1717                           	callstack 28
  1718  004EC6                     
  1719                           ;ssd.c: 96:     pinMode(PIN_D0, 0);
  1720  004EC6  0E00               	movlw	0
  1721  004EC8  6E02               	movwf	(pinMode@pin+1)^0,c
  1722  004ECA  0E18               	movlw	24
  1723  004ECC  6E01               	movwf	pinMode@pin^0,c
  1724  004ECE  0E00               	movlw	0
  1725  004ED0  6E04               	movwf	(pinMode@type+1)^0,c
  1726  004ED2  0E00               	movlw	0
  1727  004ED4  6E03               	movwf	pinMode@type^0,c
  1728  004ED6  EC29  F02E         	call	_pinMode	;wreg free
  1729                           
  1730                           ;ssd.c: 97:     pinMode(PIN_D1, 0);
  1731  004EDA  0E00               	movlw	0
  1732  004EDC  6E02               	movwf	(pinMode@pin+1)^0,c
  1733  004EDE  0E19               	movlw	25
  1734  004EE0  6E01               	movwf	pinMode@pin^0,c
  1735  004EE2  0E00               	movlw	0
  1736  004EE4  6E04               	movwf	(pinMode@type+1)^0,c
  1737  004EE6  0E00               	movlw	0
  1738  004EE8  6E03               	movwf	pinMode@type^0,c
  1739  004EEA  EC29  F02E         	call	_pinMode	;wreg free
  1740                           
  1741                           ;ssd.c: 98:     pinMode(PIN_D2, 0);
  1742  004EEE  0E00               	movlw	0
  1743  004EF0  6E02               	movwf	(pinMode@pin+1)^0,c
  1744  004EF2  0E1A               	movlw	26
  1745  004EF4  6E01               	movwf	pinMode@pin^0,c
  1746  004EF6  0E00               	movlw	0
  1747  004EF8  6E04               	movwf	(pinMode@type+1)^0,c
  1748  004EFA  0E00               	movlw	0
  1749  004EFC  6E03               	movwf	pinMode@type^0,c
  1750  004EFE  EC29  F02E         	call	_pinMode	;wreg free
  1751                           
  1752                           ;ssd.c: 99:     pinMode(PIN_D3, 0);
  1753  004F02  0E00               	movlw	0
  1754  004F04  6E02               	movwf	(pinMode@pin+1)^0,c
  1755  004F06  0E1B               	movlw	27
  1756  004F08  6E01               	movwf	pinMode@pin^0,c
  1757  004F0A  0E00               	movlw	0
  1758  004F0C  6E04               	movwf	(pinMode@type+1)^0,c
  1759  004F0E  0E00               	movlw	0
  1760  004F10  6E03               	movwf	pinMode@type^0,c
  1761  004F12  EC29  F02E         	call	_pinMode	;wreg free
  1762                           
  1763                           ;ssd.c: 102:     soInit();
  1764  004F16  EC68  F026         	call	_soInit	;wreg free
  1765  004F1A  0012               	return		;funcret
  1766  004F1C                     __end_of_ssdInit:
  1767                           	callstack 0
  1768                           
  1769 ;; *************** function _serial_init *****************
  1770 ;; Defined at:
  1771 ;;		line 30 in file "serial.c"
  1772 ;; Parameters:    Size  Location     Type
  1773 ;;		None
  1774 ;; Auto vars:     Size  Location     Type
  1775 ;;		None
  1776 ;; Return value:  Size  Location     Type
  1777 ;;                  1    wreg      void 
  1778 ;; Registers used:
  1779 ;;		wreg, status,2
  1780 ;; Tracked objects:
  1781 ;;		On entry : 0/0
  1782 ;;		On exit  : 0/0
  1783 ;;		Unchanged: 0/0
  1784 ;; Data sizes:     COMRAM   BANK0   BANK1   BANK2   BANK3   BANK4   BANK5
  1785 ;;      Params:         0       0       0       0       0       0       0
  1786 ;;      Locals:         0       0       0       0       0       0       0
  1787 ;;      Temps:          0       0       0       0       0       0       0
  1788 ;;      Totals:         0       0       0       0       0       0       0
  1789 ;;Total ram usage:        0 bytes
  1790 ;; Hardware stack levels used: 1
  1791 ;; This function calls:
  1792 ;;		Nothing
  1793 ;; This function is called by:
  1794 ;;		_main
  1795 ;; This function uses a non-reentrant model
  1796 ;;
  1797                           
  1798                           	psect	text4
  1799  004B22                     __ptext4:
  1800                           	callstack 0
  1801  004B22                     _serial_init:
  1802                           	callstack 30
  1803  004B22                     
  1804                           ;serial.c: 32:     SPBRG=103;
  1805  004B22  0E67               	movlw	103
  1806  004B24  6EAF               	movwf	175,c	;volatile
  1807  004B26                     
  1808                           ;serial.c: 37:     TXSTAbits.TX9=0;
  1809  004B26  9CAC               	bcf	172,6,c	;volatile
  1810  004B28                     
  1811                           ;serial.c: 38:     TXSTAbits.TXEN=1;
  1812  004B28  8AAC               	bsf	172,5,c	;volatile
  1813  004B2A                     
  1814                           ;serial.c: 39:     TXSTAbits.SYNC=0;
  1815  004B2A  98AC               	bcf	172,4,c	;volatile
  1816  004B2C                     
  1817                           ;serial.c: 40:     TXSTAbits.BRGH=1;
  1818  004B2C  84AC               	bsf	172,2,c	;volatile
  1819  004B2E                     
  1820                           ;serial.c: 41:     RCSTAbits.SPEN=1;
  1821  004B2E  8EAB               	bsf	171,7,c	;volatile
  1822  004B30                     
  1823                           ;serial.c: 42:     RCSTAbits.RX9=0;
  1824  004B30  9CAB               	bcf	171,6,c	;volatile
  1825  004B32                     
  1826                           ;serial.c: 43:     RCSTAbits.CREN=1;
  1827  004B32  88AB               	bsf	171,4,c	;volatile
  1828  004B34  0012               	return		;funcret
  1829  004B36                     __end_of_serial_init:
  1830                           	callstack 0
  1831                           
  1832 ;; *************** function _selecaoCombustivel *****************
  1833 ;; Defined at:
  1834 ;;		line 188 in file "bombaComb.c"
  1835 ;; Parameters:    Size  Location     Type
  1836 ;;  teclaIn         1    wreg     unsigned char 
  1837 ;; Auto vars:     Size  Location     Type
  1838 ;;  teclaIn         1   96[COMRAM] unsigned char 
  1839 ;;  buffer          5  101[COMRAM] unsigned char [5]
  1840 ;;  total           4  110[COMRAM] float 
  1841 ;;  litros          4  106[COMRAM] float 
  1842 ;;  price           4   97[COMRAM] float 
  1843 ;;  i               1  115[COMRAM] unsigned char 
  1844 ;;  op              1  114[COMRAM] unsigned char 
  1845 ;; Return value:  Size  Location     Type
  1846 ;;                  1    wreg      void 
  1847 ;; Registers used:
  1848 ;;		wreg, fsr2l, fsr2h, status,2, status,0, tblptrl, tblptrh, tblptru, prodl, prodh, cstack
  1849 ;; Tracked objects:
  1850 ;;		On entry : 0/0
  1851 ;;		On exit  : 0/0
  1852 ;;		Unchanged: 0/0
  1853 ;; Data sizes:     COMRAM   BANK0   BANK1   BANK2   BANK3   BANK4   BANK5
  1854 ;;      Params:         0       0       0       0       0       0       0
  1855 ;;      Locals:        20       0       0       0       0       0       0
  1856 ;;      Temps:          4       0       0       0       0       0       0
  1857 ;;      Totals:        24       0       0       0       0       0       0
  1858 ;;Total ram usage:       24 bytes
  1859 ;; Hardware stack levels used: 1
  1860 ;; Hardware stack levels required when called: 7
  1861 ;; This function calls:
  1862 ;;		___awmod
  1863 ;;		___fladd
  1864 ;;		___fldiv
  1865 ;;		___flmul
  1866 ;;		___wmul
  1867 ;;		___xxtofl
  1868 ;;		_abastecimentoBomba
  1869 ;;		_lcdCommand
  1870 ;;		_lcdString
  1871 ;;		_opcaoInvalida
  1872 ;;		_serial_rx
  1873 ;;		_serial_tx
  1874 ;;		_serial_tx_str
  1875 ;; This function is called by:
  1876 ;;		_main
  1877 ;; This function uses a non-reentrant model
  1878 ;;
  1879                           
  1880                           	psect	text5
  1881  006D72                     __ptext5:
  1882                           	callstack 0
  1883  006D72                     _selecaoCombustivel:
  1884                           	callstack 23
  1885                           
  1886                           ;incstack = 0
  1887                           ;selecaoCombustivel@teclaIn stored from wreg
  1888  006D72  6E61               	movwf	selecaoCombustivel@teclaIn^0,c
  1889  006D74                     
  1890                           ;bombaComb.c: 189:     unsigned char buffer[5], i = 0, op;
  1891  006D74  0E00               	movlw	0
  1892  006D76  6E74               	movwf	selecaoCombustivel@i^0,c
  1893  006D78  0E00               	movlw	0
  1894  006D7A  6E6F               	movwf	selecaoCombustivel@total^0,c
  1895  006D7C  0E00               	movlw	0
  1896  006D7E  6E70               	movwf	(selecaoCombustivel@total+1)^0,c
  1897  006D80  0E00               	movlw	0
  1898  006D82  6E71               	movwf	(selecaoCombustivel@total+2)^0,c
  1899  006D84  0E00               	movlw	0
  1900  006D86  6E72               	movwf	(selecaoCombustivel@total+3)^0,c
  1901  006D88  0E00               	movlw	0
  1902  006D8A  6E62               	movwf	selecaoCombustivel@price^0,c
  1903  006D8C  0E00               	movlw	0
  1904  006D8E  6E63               	movwf	(selecaoCombustivel@price+1)^0,c
  1905  006D90  0E00               	movlw	0
  1906  006D92  6E64               	movwf	(selecaoCombustivel@price+2)^0,c
  1907  006D94  0E00               	movlw	0
  1908  006D96  6E65               	movwf	(selecaoCombustivel@price+3)^0,c
  1909                           
  1910                           ;bombaComb.c: 193:     switch (teclaIn) {
  1911  006D98  EF2F  F037         	goto	l3718
  1912  006D9C                     l3674:
  1913                           
  1914                           ;bombaComb.c: 197:             price = 6.2;
  1915  006D9C  0E66               	movlw	102
  1916  006D9E  6E62               	movwf	selecaoCombustivel@price^0,c
  1917  006DA0  0E66               	movlw	102
  1918  006DA2  6E63               	movwf	(selecaoCombustivel@price+1)^0,c
  1919  006DA4  0EC6               	movlw	198
  1920  006DA6  6E64               	movwf	(selecaoCombustivel@price+2)^0,c
  1921  006DA8  0E40               	movlw	64
  1922  006DAA  6E65               	movwf	(selecaoCombustivel@price+3)^0,c
  1923  006DAC                     
  1924                           ;bombaComb.c: 198:             lcdCommand(0x01);
  1925  006DAC  0E01               	movlw	1
  1926  006DAE  ECA6  F025         	call	_lcdCommand
  1927  006DB2                     
  1928                           ;bombaComb.c: 199:             lcdCommand(0x80);
  1929  006DB2  0E80               	movlw	128
  1930  006DB4  ECA6  F025         	call	_lcdCommand
  1931  006DB8                     
  1932                           ;bombaComb.c: 200:             lcdString("Gasolina");
  1933  006DB8  0ED8               	movlw	low STR_28
  1934  006DBA  6E0F               	movwf	lcdString@msg^0,c
  1935  006DBC  0E7F               	movlw	high STR_28
  1936  006DBE  6E10               	movwf	(lcdString@msg+1)^0,c
  1937  006DC0  EC38  F027         	call	_lcdString	;wreg free
  1938  006DC4                     
  1939                           ;bombaComb.c: 201:             lcdCommand(0xC0);
  1940  006DC4  0EC0               	movlw	192
  1941  006DC6  ECA6  F025         	call	_lcdCommand
  1942  006DCA                     
  1943                           ;bombaComb.c: 202:             lcdString("Preco: R$ 6,2");
  1944  006DCA  0E42               	movlw	low STR_29
  1945  006DCC  6E0F               	movwf	lcdString@msg^0,c
  1946  006DCE  0E7F               	movlw	high STR_29
  1947  006DD0  6E10               	movwf	(lcdString@msg+1)^0,c
  1948  006DD2  EC38  F027         	call	_lcdString	;wreg free
  1949                           
  1950                           ;bombaComb.c: 203:             break;
  1951  006DD6  EF48  F037         	goto	l3720
  1952  006DDA                     l3686:
  1953                           
  1954                           ;bombaComb.c: 206:             price = 4.9;
  1955  006DDA  0ECD               	movlw	205
  1956  006DDC  6E62               	movwf	selecaoCombustivel@price^0,c
  1957  006DDE  0ECC               	movlw	204
  1958  006DE0  6E63               	movwf	(selecaoCombustivel@price+1)^0,c
  1959  006DE2  0E9C               	movlw	156
  1960  006DE4  6E64               	movwf	(selecaoCombustivel@price+2)^0,c
  1961  006DE6  0E40               	movlw	64
  1962  006DE8  6E65               	movwf	(selecaoCombustivel@price+3)^0,c
  1963  006DEA                     
  1964                           ;bombaComb.c: 207:             lcdCommand(0x01);
  1965  006DEA  0E01               	movlw	1
  1966  006DEC  ECA6  F025         	call	_lcdCommand
  1967  006DF0                     
  1968                           ;bombaComb.c: 208:             lcdCommand(0x80);
  1969  006DF0  0E80               	movlw	128
  1970  006DF2  ECA6  F025         	call	_lcdCommand
  1971  006DF6                     
  1972                           ;bombaComb.c: 209:             lcdString("Etanol");
  1973  006DF6  0EF1               	movlw	low STR_30
  1974  006DF8  6E0F               	movwf	lcdString@msg^0,c
  1975  006DFA  0E7F               	movlw	high STR_30
  1976  006DFC  6E10               	movwf	(lcdString@msg+1)^0,c
  1977  006DFE  EC38  F027         	call	_lcdString	;wreg free
  1978  006E02                     
  1979                           ;bombaComb.c: 210:             lcdCommand(0xC0);
  1980  006E02  0EC0               	movlw	192
  1981  006E04  ECA6  F025         	call	_lcdCommand
  1982  006E08                     
  1983                           ;bombaComb.c: 211:             lcdString("Preco: R$ 4,9");
  1984  006E08  0E5E               	movlw	low STR_31
  1985  006E0A  6E0F               	movwf	lcdString@msg^0,c
  1986  006E0C  0E7F               	movlw	high STR_31
  1987  006E0E  6E10               	movwf	(lcdString@msg+1)^0,c
  1988  006E10  EC38  F027         	call	_lcdString	;wreg free
  1989                           
  1990                           ;bombaComb.c: 212:             break;
  1991  006E14  EF48  F037         	goto	l3720
  1992  006E18                     l3698:
  1993                           
  1994                           ;bombaComb.c: 215:             price = 4.7;
  1995  006E18  0E66               	movlw	102
  1996  006E1A  6E62               	movwf	selecaoCombustivel@price^0,c
  1997  006E1C  0E66               	movlw	102
  1998  006E1E  6E63               	movwf	(selecaoCombustivel@price+1)^0,c
  1999  006E20  0E96               	movlw	150
  2000  006E22  6E64               	movwf	(selecaoCombustivel@price+2)^0,c
  2001  006E24  0E40               	movlw	64
  2002  006E26  6E65               	movwf	(selecaoCombustivel@price+3)^0,c
  2003  006E28                     
  2004                           ;bombaComb.c: 216:             lcdCommand(0x01);
  2005  006E28  0E01               	movlw	1
  2006  006E2A  ECA6  F025         	call	_lcdCommand
  2007  006E2E                     
  2008                           ;bombaComb.c: 217:             lcdCommand(0x80);
  2009  006E2E  0E80               	movlw	128
  2010  006E30  ECA6  F025         	call	_lcdCommand
  2011  006E34                     
  2012                           ;bombaComb.c: 218:             lcdString("Diesel");
  2013  006E34  0EEA               	movlw	low STR_32
  2014  006E36  6E0F               	movwf	lcdString@msg^0,c
  2015  006E38  0E7F               	movlw	high STR_32
  2016  006E3A  6E10               	movwf	(lcdString@msg+1)^0,c
  2017  006E3C  EC38  F027         	call	_lcdString	;wreg free
  2018  006E40                     
  2019                           ;bombaComb.c: 219:             lcdCommand(0xC0);
  2020  006E40  0EC0               	movlw	192
  2021  006E42  ECA6  F025         	call	_lcdCommand
  2022  006E46                     
  2023                           ;bombaComb.c: 220:             lcdString("Preco: R$ 4,7");
  2024  006E46  0E50               	movlw	low STR_33
  2025  006E48  6E0F               	movwf	lcdString@msg^0,c
  2026  006E4A  0E7F               	movlw	high STR_33
  2027  006E4C  6E10               	movwf	(lcdString@msg+1)^0,c
  2028  006E4E  EC38  F027         	call	_lcdString	;wreg free
  2029                           
  2030                           ;bombaComb.c: 221:             break;
  2031  006E52  EF48  F037         	goto	l3720
  2032  006E56                     l3710:
  2033                           
  2034                           ;bombaComb.c: 224:             opcaoInvalida();
  2035  006E56  ECC7  F026         	call	_opcaoInvalida	;wreg free
  2036  006E5A  EFFC  F039         	goto	l437
  2037  006E5E                     l3718:
  2038  006E5E  5061               	movf	selecaoCombustivel@teclaIn^0,w,c
  2039  006E60  6E5D               	movwf	??_selecaoCombustivel^0,c
  2040  006E62  6A5E               	clrf	(??_selecaoCombustivel+1)^0,c
  2041                           
  2042                           ; Switch on 2 bytes has been partitioned into a top level switch of size 1, and 1 sub-sw
      +                          itches
  2043                           ; Switch size 1, requested type "simple"
  2044                           ; Number of cases is 1, Range of values is 0 to 0
  2045                           ; switch strategies available:
  2046                           ; Name         Instructions Cycles
  2047                           ; simple_byte            4     3 (average)
  2048                           ;	Chosen strategy is simple_byte
  2049  006E64  505E               	movf	(??_selecaoCombustivel+1)^0,w,c
  2050  006E66  0A00               	xorlw	0	; case 0
  2051  006E68  B4D8               	btfsc	status,2,c
  2052  006E6A  EF39  F037         	goto	l3934
  2053  006E6E  EF2B  F037         	goto	l3710
  2054  006E72                     l3934:
  2055                           
  2056                           ; Switch size 1, requested type "simple"
  2057                           ; Number of cases is 3, Range of values is 68 to 85
  2058                           ; switch strategies available:
  2059                           ; Name         Instructions Cycles
  2060                           ; simple_byte           10     6 (average)
  2061                           ;	Chosen strategy is simple_byte
  2062  006E72  505D               	movf	??_selecaoCombustivel^0,w,c
  2063  006E74  0A44               	xorlw	68	; case 68
  2064  006E76  B4D8               	btfsc	status,2,c
  2065  006E78  EF0C  F037         	goto	l3698
  2066  006E7C  0A08               	xorlw	8	; case 76
  2067  006E7E  B4D8               	btfsc	status,2,c
  2068  006E80  EFED  F036         	goto	l3686
  2069  006E84  0A19               	xorlw	25	; case 85
  2070  006E86  B4D8               	btfsc	status,2,c
  2071  006E88  EFCE  F036         	goto	l3674
  2072  006E8C  EF2B  F037         	goto	l3710
  2073  006E90                     l3720:
  2074                           
  2075                           ;bombaComb.c: 230:     serial_tx_str("\r\nAbastecer por litro ou real [(L)itro/(R)eal]: 
      +                          \r");
  2076  006E90  0E93               	movlw	low STR_34
  2077  006E92  6E02               	movwf	serial_tx_str@val^0,c
  2078  006E94  0E7D               	movlw	high STR_34
  2079  006E96  6E03               	movwf	(serial_tx_str@val+1)^0,c
  2080  006E98  EC10  F027         	call	_serial_tx_str	;wreg free
  2081  006E9C                     l3722:
  2082                           
  2083                           ;bombaComb.c: 234:         op = serial_rx(2000);
  2084  006E9C  0E07               	movlw	7
  2085  006E9E  6E08               	movwf	(serial_rx@timeout+1)^0,c
  2086  006EA0  0ED0               	movlw	208
  2087  006EA2  6E07               	movwf	serial_rx@timeout^0,c
  2088  006EA4  EC90  F028         	call	_serial_rx	;wreg free
  2089  006EA8  6E73               	movwf	selecaoCombustivel@op^0,c
  2090  006EAA                     
  2091                           ;bombaComb.c: 235:     } while (op == 0xA5);
  2092  006EAA  0EA5               	movlw	165
  2093  006EAC  1873               	xorwf	selecaoCombustivel@op^0,w,c
  2094  006EAE  B4D8               	btfsc	status,2,c
  2095  006EB0  EF5C  F037         	goto	u4161
  2096  006EB4  EF5E  F037         	goto	u4160
  2097  006EB8                     u4161:
  2098  006EB8  EF4E  F037         	goto	l3722
  2099  006EBC                     u4160:
  2100  006EBC                     
  2101                           ;bombaComb.c: 238:     serial_tx(op);
  2102  006EBC  5073               	movf	selecaoCombustivel@op^0,w,c
  2103  006EBE  EC9B  F025         	call	_serial_tx
  2104  006EC2                     
  2105                           ;bombaComb.c: 241:     if (op == 'L') {
  2106  006EC2  0E4C               	movlw	76
  2107  006EC4  1873               	xorwf	selecaoCombustivel@op^0,w,c
  2108  006EC6  A4D8               	btfss	status,2,c
  2109  006EC8  EF68  F037         	goto	u4171
  2110  006ECC  EF6A  F037         	goto	u4170
  2111  006ED0                     u4171:
  2112  006ED0  EF72  F037         	goto	l3732
  2113  006ED4                     u4170:
  2114  006ED4                     
  2115                           ;bombaComb.c: 242:         serial_tx_str("\r\nLitros (000,0): \r");
  2116  006ED4  0EC9               	movlw	low STR_35
  2117  006ED6  6E02               	movwf	serial_tx_str@val^0,c
  2118  006ED8  0E7E               	movlw	high STR_35
  2119  006EDA  6E03               	movwf	(serial_tx_str@val+1)^0,c
  2120  006EDC  EC10  F027         	call	_serial_tx_str	;wreg free
  2121                           
  2122                           ;bombaComb.c: 243:     }
  2123  006EE0  EF8D  F037         	goto	l3740
  2124  006EE4                     l3732:
  2125  006EE4  0E52               	movlw	82
  2126  006EE6  1873               	xorwf	selecaoCombustivel@op^0,w,c
  2127  006EE8  A4D8               	btfss	status,2,c
  2128  006EEA  EF79  F037         	goto	u4181
  2129  006EEE  EF7B  F037         	goto	u4180
  2130  006EF2                     u4181:
  2131  006EF2  EF83  F037         	goto	l3736
  2132  006EF6                     u4180:
  2133  006EF6                     
  2134                           ;bombaComb.c: 246:         serial_tx_str("\r\nValor (000,0): \r");
  2135  006EF6  0EF0               	movlw	low STR_36
  2136  006EF8  6E02               	movwf	serial_tx_str@val^0,c
  2137  006EFA  0E7E               	movlw	high STR_36
  2138  006EFC  6E03               	movwf	(serial_tx_str@val+1)^0,c
  2139  006EFE  EC10  F027         	call	_serial_tx_str	;wreg free
  2140                           
  2141                           ;bombaComb.c: 247:     }
  2142  006F02  EF8D  F037         	goto	l3740
  2143  006F06                     l3736:
  2144                           
  2145                           ;bombaComb.c: 250:         opcaoInvalida();
  2146  006F06  ECC7  F026         	call	_opcaoInvalida	;wreg free
  2147                           
  2148                           ;bombaComb.c: 251:         serial_tx_str("\r\nOpcao Invalida! \n\r");
  2149  006F0A  0EA0               	movlw	low STR_37
  2150  006F0C  6E02               	movwf	serial_tx_str@val^0,c
  2151  006F0E  0E7E               	movlw	high STR_37
  2152  006F10  6E03               	movwf	(serial_tx_str@val+1)^0,c
  2153  006F12  EC10  F027         	call	_serial_tx_str	;wreg free
  2154  006F16  EFFC  F039         	goto	l437
  2155  006F1A                     l3740:
  2156                           
  2157                           ;bombaComb.c: 258:         buffer[i] = serial_rx(2000);
  2158  006F1A  0E66               	movlw	low selecaoCombustivel@buffer
  2159  006F1C  2474               	addwf	selecaoCombustivel@i^0,w,c
  2160  006F1E  6ED9               	movwf	fsr2l,c
  2161  006F20  6ADA               	clrf	fsr2h,c
  2162  006F22  0E00               	movlw	high selecaoCombustivel@buffer
  2163  006F24  22DA               	addwfc	fsr2h,f,c
  2164  006F26  0E07               	movlw	7
  2165  006F28  6E08               	movwf	(serial_rx@timeout+1)^0,c
  2166  006F2A  0ED0               	movlw	208
  2167  006F2C  6E07               	movwf	serial_rx@timeout^0,c
  2168  006F2E  EC90  F028         	call	_serial_rx	;wreg free
  2169  006F32  6EDF               	movwf	indf2,c
  2170  006F34                     
  2171                           ;bombaComb.c: 261:         if ((((buffer[i] - 48) >= 0) && ((buffer[i] - 48) <= 9) && (i
      +                           != 3)) || ((buffer[i] == ',') && (i == 3))){
  2172  006F34  0E66               	movlw	low selecaoCombustivel@buffer
  2173  006F36  2474               	addwf	selecaoCombustivel@i^0,w,c
  2174  006F38  6ED9               	movwf	fsr2l,c
  2175  006F3A  6ADA               	clrf	fsr2h,c
  2176  006F3C  0E00               	movlw	high selecaoCombustivel@buffer
  2177  006F3E  22DA               	addwfc	fsr2h,f,c
  2178  006F40  50DF               	movf	indf2,w,c
  2179  006F42  6E5D               	movwf	??_selecaoCombustivel^0,c
  2180  006F44  6A5E               	clrf	(??_selecaoCombustivel+1)^0,c
  2181  006F46  0ED0               	movlw	208
  2182  006F48  245D               	addwf	??_selecaoCombustivel^0,w,c
  2183  006F4A  0EFF               	movlw	255
  2184  006F4C  205E               	addwfc	(??_selecaoCombustivel+1)^0,w,c
  2185  006F4E  0B80               	andlw	128
  2186  006F50  A4D8               	btfss	status,2,c
  2187  006F52  EFAD  F037         	goto	u4191
  2188  006F56  EFAF  F037         	goto	u4190
  2189  006F5A                     u4191:
  2190  006F5A  EFD7  F037         	goto	l3748
  2191  006F5E                     u4190:
  2192  006F5E  0ED0               	movlw	208
  2193  006F60  6E5D               	movwf	??_selecaoCombustivel^0,c
  2194  006F62  0EFF               	movlw	255
  2195  006F64  6E5E               	movwf	(??_selecaoCombustivel+1)^0,c
  2196  006F66  0E66               	movlw	low selecaoCombustivel@buffer
  2197  006F68  2474               	addwf	selecaoCombustivel@i^0,w,c
  2198  006F6A  6ED9               	movwf	fsr2l,c
  2199  006F6C  6ADA               	clrf	fsr2h,c
  2200  006F6E  0E00               	movlw	high selecaoCombustivel@buffer
  2201  006F70  22DA               	addwfc	fsr2h,f,c
  2202  006F72  50DF               	movf	indf2,w,c
  2203  006F74  6E5F               	movwf	(??_selecaoCombustivel+2)^0,c
  2204  006F76  6A60               	clrf	(??_selecaoCombustivel+3)^0,c
  2205  006F78  505D               	movf	??_selecaoCombustivel^0,w,c
  2206  006F7A  265F               	addwf	(??_selecaoCombustivel+2)^0,f,c
  2207  006F7C  505E               	movf	(??_selecaoCombustivel+1)^0,w,c
  2208  006F7E  2260               	addwfc	(??_selecaoCombustivel+3)^0,f,c
  2209  006F80  BE60               	btfsc	(??_selecaoCombustivel+3)^0,7,c
  2210  006F82  EFCE  F037         	goto	u4200
  2211  006F86  5060               	movf	(??_selecaoCombustivel+3)^0,w,c
  2212  006F88  E107               	bnz	u4201
  2213  006F8A  0E0A               	movlw	10
  2214  006F8C  5C5F               	subwf	(??_selecaoCombustivel+2)^0,w,c
  2215  006F8E  B0D8               	btfsc	status,0,c
  2216  006F90  EFCC  F037         	goto	u4201
  2217  006F94  EFCE  F037         	goto	u4200
  2218  006F98                     u4201:
  2219  006F98  EFD7  F037         	goto	l3748
  2220  006F9C                     u4200:
  2221  006F9C  0E03               	movlw	3
  2222  006F9E  1874               	xorwf	selecaoCombustivel@i^0,w,c
  2223  006FA0  A4D8               	btfss	status,2,c
  2224  006FA2  EFD5  F037         	goto	u4211
  2225  006FA6  EFD7  F037         	goto	u4210
  2226  006FAA                     u4211:
  2227  006FAA  EFEF  F037         	goto	l3752
  2228  006FAE                     u4210:
  2229  006FAE                     l3748:
  2230  006FAE  0E66               	movlw	low selecaoCombustivel@buffer
  2231  006FB0  2474               	addwf	selecaoCombustivel@i^0,w,c
  2232  006FB2  6ED9               	movwf	fsr2l,c
  2233  006FB4  6ADA               	clrf	fsr2h,c
  2234  006FB6  0E00               	movlw	high selecaoCombustivel@buffer
  2235  006FB8  22DA               	addwfc	fsr2h,f,c
  2236  006FBA  0E2C               	movlw	44
  2237  006FBC  18DE               	xorwf	postinc2,w,c
  2238  006FBE  A4D8               	btfss	status,2,c
  2239  006FC0  EFE4  F037         	goto	u4221
  2240  006FC4  EFE6  F037         	goto	u4220
  2241  006FC8                     u4221:
  2242  006FC8  EFF9  F037         	goto	l3756
  2243  006FCC                     u4220:
  2244  006FCC  0E03               	movlw	3
  2245  006FCE  1874               	xorwf	selecaoCombustivel@i^0,w,c
  2246  006FD0  A4D8               	btfss	status,2,c
  2247  006FD2  EFED  F037         	goto	u4231
  2248  006FD6  EFEF  F037         	goto	u4230
  2249  006FDA                     u4231:
  2250  006FDA  EFF9  F037         	goto	l3756
  2251  006FDE                     u4230:
  2252  006FDE                     l3752:
  2253                           
  2254                           ;bombaComb.c: 262:             serial_tx(buffer[i]);
  2255  006FDE  0E66               	movlw	low selecaoCombustivel@buffer
  2256  006FE0  2474               	addwf	selecaoCombustivel@i^0,w,c
  2257  006FE2  6ED9               	movwf	fsr2l,c
  2258  006FE4  6ADA               	clrf	fsr2h,c
  2259  006FE6  0E00               	movlw	high selecaoCombustivel@buffer
  2260  006FE8  22DA               	addwfc	fsr2h,f,c
  2261  006FEA  50DF               	movf	indf2,w,c
  2262  006FEC  EC9B  F025         	call	_serial_tx
  2263  006FF0                     
  2264                           ;bombaComb.c: 263:             i++;
  2265  006FF0  2A74               	incf	selecaoCombustivel@i^0,f,c
  2266  006FF2                     l3756:
  2267                           
  2268                           ;bombaComb.c: 265:     } while (i != 5);
  2269  006FF2  0E05               	movlw	5
  2270  006FF4  1874               	xorwf	selecaoCombustivel@i^0,w,c
  2271  006FF6  A4D8               	btfss	status,2,c
  2272  006FF8  EF00  F038         	goto	u4241
  2273  006FFC  EF02  F038         	goto	u4240
  2274  007000                     u4241:
  2275  007000  EF8D  F037         	goto	l3740
  2276  007004                     u4240:
  2277  007004                     
  2278                           ;bombaComb.c: 269:     if (op == 'L') {
  2279  007004  0E4C               	movlw	76
  2280  007006  1873               	xorwf	selecaoCombustivel@op^0,w,c
  2281  007008  A4D8               	btfss	status,2,c
  2282  00700A  EF09  F038         	goto	u4251
  2283  00700E  EF0B  F038         	goto	u4250
  2284  007012                     u4251:
  2285  007012  EFF7  F038         	goto	l3772
  2286  007016                     u4250:
  2287  007016                     
  2288                           ;bombaComb.c: 271:         litros = (float) (0.1 * ((buffer[4] % 48)));
  2289  007016  0E00               	movlw	0
  2290  007018  6E27               	movwf	(___awmod@divisor+1)^0,c
  2291  00701A  0E30               	movlw	48
  2292  00701C  6E26               	movwf	___awmod@divisor^0,c
  2293  00701E  C06A  F024         	movff	selecaoCombustivel@buffer+4,___awmod@dividend
  2294  007022  6A25               	clrf	(___awmod@dividend+1)^0,c
  2295  007024  ECD7  F028         	call	___awmod	;wreg free
  2296  007028  C024  F030         	movff	?___awmod,___xxtofl@val
  2297  00702C  C025  F031         	movff	?___awmod+1,___xxtofl@val+1
  2298  007030  0E00               	movlw	0
  2299  007032  BE31               	btfsc	(___xxtofl@val+1)^0,7,c
  2300  007034  0EFF               	movlw	-1
  2301  007036  6E32               	movwf	(___xxtofl@val+2)^0,c
  2302  007038  6E33               	movwf	(___xxtofl@val+3)^0,c
  2303  00703A  0E01               	movlw	1
  2304  00703C  EC4F  F02D         	call	___xxtofl
  2305  007040  C030  F03E         	movff	?___xxtofl,___flmul@b
  2306  007044  C031  F03F         	movff	?___xxtofl+1,___flmul@b+1
  2307  007048  C032  F040         	movff	?___xxtofl+2,___flmul@b+2
  2308  00704C  C033  F041         	movff	?___xxtofl+3,___flmul@b+3
  2309  007050  0ECD               	movlw	205
  2310  007052  6E42               	movwf	___flmul@a^0,c
  2311  007054  0ECC               	movlw	204
  2312  007056  6E43               	movwf	(___flmul@a+1)^0,c
  2313  007058  0ECC               	movlw	204
  2314  00705A  6E44               	movwf	(___flmul@a+2)^0,c
  2315  00705C  0E3D               	movlw	61
  2316  00705E  6E45               	movwf	(___flmul@a+3)^0,c
  2317  007060  EC44  F032         	call	___flmul	;wreg free
  2318  007064  C03E  F06B         	movff	?___flmul,selecaoCombustivel@litros
  2319  007068  C03F  F06C         	movff	?___flmul+1,selecaoCombustivel@litros+1
  2320  00706C  C040  F06D         	movff	?___flmul+2,selecaoCombustivel@litros+2
  2321  007070  C041  F06E         	movff	?___flmul+3,selecaoCombustivel@litros+3
  2322  007074                     
  2323                           ;bombaComb.c: 272:         litros += (float) (1 * ((buffer[2] % 48)));
  2324  007074  C06B  F03E         	movff	selecaoCombustivel@litros,___fladd@b
  2325  007078  C06C  F03F         	movff	selecaoCombustivel@litros+1,___fladd@b+1
  2326  00707C  C06D  F040         	movff	selecaoCombustivel@litros+2,___fladd@b+2
  2327  007080  C06E  F041         	movff	selecaoCombustivel@litros+3,___fladd@b+3
  2328  007084  0E00               	movlw	0
  2329  007086  6E27               	movwf	(___awmod@divisor+1)^0,c
  2330  007088  0E30               	movlw	48
  2331  00708A  6E26               	movwf	___awmod@divisor^0,c
  2332  00708C  C068  F024         	movff	selecaoCombustivel@buffer+2,___awmod@dividend
  2333  007090  6A25               	clrf	(___awmod@dividend+1)^0,c
  2334  007092  ECD7  F028         	call	___awmod	;wreg free
  2335  007096  C024  F030         	movff	?___awmod,___xxtofl@val
  2336  00709A  C025  F031         	movff	?___awmod+1,___xxtofl@val+1
  2337  00709E  0E00               	movlw	0
  2338  0070A0  BE31               	btfsc	(___xxtofl@val+1)^0,7,c
  2339  0070A2  0EFF               	movlw	-1
  2340  0070A4  6E32               	movwf	(___xxtofl@val+2)^0,c
  2341  0070A6  6E33               	movwf	(___xxtofl@val+3)^0,c
  2342  0070A8  0E01               	movlw	1
  2343  0070AA  EC4F  F02D         	call	___xxtofl
  2344  0070AE  C030  F042         	movff	?___xxtofl,___fladd@a
  2345  0070B2  C031  F043         	movff	?___xxtofl+1,___fladd@a+1
  2346  0070B6  C032  F044         	movff	?___xxtofl+2,___fladd@a+2
  2347  0070BA  C033  F045         	movff	?___xxtofl+3,___fladd@a+3
  2348  0070BE  EC59  F034         	call	___fladd	;wreg free
  2349  0070C2  C03E  F06B         	movff	?___fladd,selecaoCombustivel@litros
  2350  0070C6  C03F  F06C         	movff	?___fladd+1,selecaoCombustivel@litros+1
  2351  0070CA  C040  F06D         	movff	?___fladd+2,selecaoCombustivel@litros+2
  2352  0070CE  C041  F06E         	movff	?___fladd+3,selecaoCombustivel@litros+3
  2353  0070D2                     
  2354                           ;bombaComb.c: 273:         litros += (float) (10 * ((buffer[1] % 48)));
  2355  0070D2  C06B  F03E         	movff	selecaoCombustivel@litros,___fladd@b
  2356  0070D6  C06C  F03F         	movff	selecaoCombustivel@litros+1,___fladd@b+1
  2357  0070DA  C06D  F040         	movff	selecaoCombustivel@litros+2,___fladd@b+2
  2358  0070DE  C06E  F041         	movff	selecaoCombustivel@litros+3,___fladd@b+3
  2359  0070E2  0E00               	movlw	0
  2360  0070E4  6E27               	movwf	(___awmod@divisor+1)^0,c
  2361  0070E6  0E30               	movlw	48
  2362  0070E8  6E26               	movwf	___awmod@divisor^0,c
  2363  0070EA  C067  F024         	movff	selecaoCombustivel@buffer+1,___awmod@dividend
  2364  0070EE  6A25               	clrf	(___awmod@dividend+1)^0,c
  2365  0070F0  ECD7  F028         	call	___awmod	;wreg free
  2366  0070F4  C024  F02A         	movff	?___awmod,___wmul@multiplier
  2367  0070F8  C025  F02B         	movff	?___awmod+1,___wmul@multiplier+1
  2368  0070FC  0E00               	movlw	0
  2369  0070FE  6E2D               	movwf	(___wmul@multiplicand+1)^0,c
  2370  007100  0E0A               	movlw	10
  2371  007102  6E2C               	movwf	___wmul@multiplicand^0,c
  2372  007104  ECFA  F025         	call	___wmul	;wreg free
  2373  007108  C02A  F030         	movff	?___wmul,___xxtofl@val
  2374  00710C  C02B  F031         	movff	?___wmul+1,___xxtofl@val+1
  2375  007110  0E00               	movlw	0
  2376  007112  BE31               	btfsc	(___xxtofl@val+1)^0,7,c
  2377  007114  0EFF               	movlw	-1
  2378  007116  6E32               	movwf	(___xxtofl@val+2)^0,c
  2379  007118  6E33               	movwf	(___xxtofl@val+3)^0,c
  2380  00711A  0E01               	movlw	1
  2381  00711C  EC4F  F02D         	call	___xxtofl
  2382  007120  C030  F042         	movff	?___xxtofl,___fladd@a
  2383  007124  C031  F043         	movff	?___xxtofl+1,___fladd@a+1
  2384  007128  C032  F044         	movff	?___xxtofl+2,___fladd@a+2
  2385  00712C  C033  F045         	movff	?___xxtofl+3,___fladd@a+3
  2386  007130  EC59  F034         	call	___fladd	;wreg free
  2387  007134  C03E  F06B         	movff	?___fladd,selecaoCombustivel@litros
  2388  007138  C03F  F06C         	movff	?___fladd+1,selecaoCombustivel@litros+1
  2389  00713C  C040  F06D         	movff	?___fladd+2,selecaoCombustivel@litros+2
  2390  007140  C041  F06E         	movff	?___fladd+3,selecaoCombustivel@litros+3
  2391  007144                     
  2392                           ;bombaComb.c: 274:         litros += (float) (100 * ((buffer[0] % 48)));
  2393  007144  C06B  F03E         	movff	selecaoCombustivel@litros,___fladd@b
  2394  007148  C06C  F03F         	movff	selecaoCombustivel@litros+1,___fladd@b+1
  2395  00714C  C06D  F040         	movff	selecaoCombustivel@litros+2,___fladd@b+2
  2396  007150  C06E  F041         	movff	selecaoCombustivel@litros+3,___fladd@b+3
  2397  007154  0E00               	movlw	0
  2398  007156  6E27               	movwf	(___awmod@divisor+1)^0,c
  2399  007158  0E30               	movlw	48
  2400  00715A  6E26               	movwf	___awmod@divisor^0,c
  2401  00715C  C066  F024         	movff	selecaoCombustivel@buffer,___awmod@dividend
  2402  007160  6A25               	clrf	(___awmod@dividend+1)^0,c
  2403  007162  ECD7  F028         	call	___awmod	;wreg free
  2404  007166  C024  F02A         	movff	?___awmod,___wmul@multiplier
  2405  00716A  C025  F02B         	movff	?___awmod+1,___wmul@multiplier+1
  2406  00716E  0E00               	movlw	0
  2407  007170  6E2D               	movwf	(___wmul@multiplicand+1)^0,c
  2408  007172  0E64               	movlw	100
  2409  007174  6E2C               	movwf	___wmul@multiplicand^0,c
  2410  007176  ECFA  F025         	call	___wmul	;wreg free
  2411  00717A  C02A  F030         	movff	?___wmul,___xxtofl@val
  2412  00717E  C02B  F031         	movff	?___wmul+1,___xxtofl@val+1
  2413  007182  0E00               	movlw	0
  2414  007184  BE31               	btfsc	(___xxtofl@val+1)^0,7,c
  2415  007186  0EFF               	movlw	-1
  2416  007188  6E32               	movwf	(___xxtofl@val+2)^0,c
  2417  00718A  6E33               	movwf	(___xxtofl@val+3)^0,c
  2418  00718C  0E01               	movlw	1
  2419  00718E  EC4F  F02D         	call	___xxtofl
  2420  007192  C030  F042         	movff	?___xxtofl,___fladd@a
  2421  007196  C031  F043         	movff	?___xxtofl+1,___fladd@a+1
  2422  00719A  C032  F044         	movff	?___xxtofl+2,___fladd@a+2
  2423  00719E  C033  F045         	movff	?___xxtofl+3,___fladd@a+3
  2424  0071A2  EC59  F034         	call	___fladd	;wreg free
  2425  0071A6  C03E  F06B         	movff	?___fladd,selecaoCombustivel@litros
  2426  0071AA  C03F  F06C         	movff	?___fladd+1,selecaoCombustivel@litros+1
  2427  0071AE  C040  F06D         	movff	?___fladd+2,selecaoCombustivel@litros+2
  2428  0071B2  C041  F06E         	movff	?___fladd+3,selecaoCombustivel@litros+3
  2429  0071B6                     
  2430                           ;bombaComb.c: 277:         total = (price * litros);
  2431  0071B6  C062  F03E         	movff	selecaoCombustivel@price,___flmul@b
  2432  0071BA  C063  F03F         	movff	selecaoCombustivel@price+1,___flmul@b+1
  2433  0071BE  C064  F040         	movff	selecaoCombustivel@price+2,___flmul@b+2
  2434  0071C2  C065  F041         	movff	selecaoCombustivel@price+3,___flmul@b+3
  2435  0071C6  C06B  F042         	movff	selecaoCombustivel@litros,___flmul@a
  2436  0071CA  C06C  F043         	movff	selecaoCombustivel@litros+1,___flmul@a+1
  2437  0071CE  C06D  F044         	movff	selecaoCombustivel@litros+2,___flmul@a+2
  2438  0071D2  C06E  F045         	movff	selecaoCombustivel@litros+3,___flmul@a+3
  2439  0071D6  EC44  F032         	call	___flmul	;wreg free
  2440  0071DA  C03E  F06F         	movff	?___flmul,selecaoCombustivel@total
  2441  0071DE  C03F  F070         	movff	?___flmul+1,selecaoCombustivel@total+1
  2442  0071E2  C040  F071         	movff	?___flmul+2,selecaoCombustivel@total+2
  2443  0071E6  C041  F072         	movff	?___flmul+3,selecaoCombustivel@total+3
  2444                           
  2445                           ;bombaComb.c: 278:     }
  2446  0071EA  EFEA  F039         	goto	l3784
  2447  0071EE                     l3772:
  2448  0071EE  0E52               	movlw	82
  2449  0071F0  1873               	xorwf	selecaoCombustivel@op^0,w,c
  2450  0071F2  A4D8               	btfss	status,2,c
  2451  0071F4  EFFE  F038         	goto	u4261
  2452  0071F8  EF00  F039         	goto	u4260
  2453  0071FC                     u4261:
  2454  0071FC  EFFC  F039         	goto	l437
  2455  007200                     u4260:
  2456  007200                     
  2457                           ;bombaComb.c: 281:         total = (float) (0.1 * ((buffer[4] % 48)));
  2458  007200  0E00               	movlw	0
  2459  007202  6E27               	movwf	(___awmod@divisor+1)^0,c
  2460  007204  0E30               	movlw	48
  2461  007206  6E26               	movwf	___awmod@divisor^0,c
  2462  007208  C06A  F024         	movff	selecaoCombustivel@buffer+4,___awmod@dividend
  2463  00720C  6A25               	clrf	(___awmod@dividend+1)^0,c
  2464  00720E  ECD7  F028         	call	___awmod	;wreg free
  2465  007212  C024  F030         	movff	?___awmod,___xxtofl@val
  2466  007216  C025  F031         	movff	?___awmod+1,___xxtofl@val+1
  2467  00721A  0E00               	movlw	0
  2468  00721C  BE31               	btfsc	(___xxtofl@val+1)^0,7,c
  2469  00721E  0EFF               	movlw	-1
  2470  007220  6E32               	movwf	(___xxtofl@val+2)^0,c
  2471  007222  6E33               	movwf	(___xxtofl@val+3)^0,c
  2472  007224  0E01               	movlw	1
  2473  007226  EC4F  F02D         	call	___xxtofl
  2474  00722A  C030  F03E         	movff	?___xxtofl,___flmul@b
  2475  00722E  C031  F03F         	movff	?___xxtofl+1,___flmul@b+1
  2476  007232  C032  F040         	movff	?___xxtofl+2,___flmul@b+2
  2477  007236  C033  F041         	movff	?___xxtofl+3,___flmul@b+3
  2478  00723A  0ECD               	movlw	205
  2479  00723C  6E42               	movwf	___flmul@a^0,c
  2480  00723E  0ECC               	movlw	204
  2481  007240  6E43               	movwf	(___flmul@a+1)^0,c
  2482  007242  0ECC               	movlw	204
  2483  007244  6E44               	movwf	(___flmul@a+2)^0,c
  2484  007246  0E3D               	movlw	61
  2485  007248  6E45               	movwf	(___flmul@a+3)^0,c
  2486  00724A  EC44  F032         	call	___flmul	;wreg free
  2487  00724E  C03E  F06F         	movff	?___flmul,selecaoCombustivel@total
  2488  007252  C03F  F070         	movff	?___flmul+1,selecaoCombustivel@total+1
  2489  007256  C040  F071         	movff	?___flmul+2,selecaoCombustivel@total+2
  2490  00725A  C041  F072         	movff	?___flmul+3,selecaoCombustivel@total+3
  2491  00725E                     
  2492                           ;bombaComb.c: 282:         total += (float) (1 * ((buffer[2] % 48)));
  2493  00725E  C06F  F03E         	movff	selecaoCombustivel@total,___fladd@b
  2494  007262  C070  F03F         	movff	selecaoCombustivel@total+1,___fladd@b+1
  2495  007266  C071  F040         	movff	selecaoCombustivel@total+2,___fladd@b+2
  2496  00726A  C072  F041         	movff	selecaoCombustivel@total+3,___fladd@b+3
  2497  00726E  0E00               	movlw	0
  2498  007270  6E27               	movwf	(___awmod@divisor+1)^0,c
  2499  007272  0E30               	movlw	48
  2500  007274  6E26               	movwf	___awmod@divisor^0,c
  2501  007276  C068  F024         	movff	selecaoCombustivel@buffer+2,___awmod@dividend
  2502  00727A  6A25               	clrf	(___awmod@dividend+1)^0,c
  2503  00727C  ECD7  F028         	call	___awmod	;wreg free
  2504  007280  C024  F030         	movff	?___awmod,___xxtofl@val
  2505  007284  C025  F031         	movff	?___awmod+1,___xxtofl@val+1
  2506  007288  0E00               	movlw	0
  2507  00728A  BE31               	btfsc	(___xxtofl@val+1)^0,7,c
  2508  00728C  0EFF               	movlw	-1
  2509  00728E  6E32               	movwf	(___xxtofl@val+2)^0,c
  2510  007290  6E33               	movwf	(___xxtofl@val+3)^0,c
  2511  007292  0E01               	movlw	1
  2512  007294  EC4F  F02D         	call	___xxtofl
  2513  007298  C030  F042         	movff	?___xxtofl,___fladd@a
  2514  00729C  C031  F043         	movff	?___xxtofl+1,___fladd@a+1
  2515  0072A0  C032  F044         	movff	?___xxtofl+2,___fladd@a+2
  2516  0072A4  C033  F045         	movff	?___xxtofl+3,___fladd@a+3
  2517  0072A8  EC59  F034         	call	___fladd	;wreg free
  2518  0072AC  C03E  F06F         	movff	?___fladd,selecaoCombustivel@total
  2519  0072B0  C03F  F070         	movff	?___fladd+1,selecaoCombustivel@total+1
  2520  0072B4  C040  F071         	movff	?___fladd+2,selecaoCombustivel@total+2
  2521  0072B8  C041  F072         	movff	?___fladd+3,selecaoCombustivel@total+3
  2522  0072BC                     
  2523                           ;bombaComb.c: 283:         total += (float) (10 * ((buffer[1] % 48)));
  2524  0072BC  C06F  F03E         	movff	selecaoCombustivel@total,___fladd@b
  2525  0072C0  C070  F03F         	movff	selecaoCombustivel@total+1,___fladd@b+1
  2526  0072C4  C071  F040         	movff	selecaoCombustivel@total+2,___fladd@b+2
  2527  0072C8  C072  F041         	movff	selecaoCombustivel@total+3,___fladd@b+3
  2528  0072CC  0E00               	movlw	0
  2529  0072CE  6E27               	movwf	(___awmod@divisor+1)^0,c
  2530  0072D0  0E30               	movlw	48
  2531  0072D2  6E26               	movwf	___awmod@divisor^0,c
  2532  0072D4  C067  F024         	movff	selecaoCombustivel@buffer+1,___awmod@dividend
  2533  0072D8  6A25               	clrf	(___awmod@dividend+1)^0,c
  2534  0072DA  ECD7  F028         	call	___awmod	;wreg free
  2535  0072DE  C024  F02A         	movff	?___awmod,___wmul@multiplier
  2536  0072E2  C025  F02B         	movff	?___awmod+1,___wmul@multiplier+1
  2537  0072E6  0E00               	movlw	0
  2538  0072E8  6E2D               	movwf	(___wmul@multiplicand+1)^0,c
  2539  0072EA  0E0A               	movlw	10
  2540  0072EC  6E2C               	movwf	___wmul@multiplicand^0,c
  2541  0072EE  ECFA  F025         	call	___wmul	;wreg free
  2542  0072F2  C02A  F030         	movff	?___wmul,___xxtofl@val
  2543  0072F6  C02B  F031         	movff	?___wmul+1,___xxtofl@val+1
  2544  0072FA  0E00               	movlw	0
  2545  0072FC  BE31               	btfsc	(___xxtofl@val+1)^0,7,c
  2546  0072FE  0EFF               	movlw	-1
  2547  007300  6E32               	movwf	(___xxtofl@val+2)^0,c
  2548  007302  6E33               	movwf	(___xxtofl@val+3)^0,c
  2549  007304  0E01               	movlw	1
  2550  007306  EC4F  F02D         	call	___xxtofl
  2551  00730A  C030  F042         	movff	?___xxtofl,___fladd@a
  2552  00730E  C031  F043         	movff	?___xxtofl+1,___fladd@a+1
  2553  007312  C032  F044         	movff	?___xxtofl+2,___fladd@a+2
  2554  007316  C033  F045         	movff	?___xxtofl+3,___fladd@a+3
  2555  00731A  EC59  F034         	call	___fladd	;wreg free
  2556  00731E  C03E  F06F         	movff	?___fladd,selecaoCombustivel@total
  2557  007322  C03F  F070         	movff	?___fladd+1,selecaoCombustivel@total+1
  2558  007326  C040  F071         	movff	?___fladd+2,selecaoCombustivel@total+2
  2559  00732A  C041  F072         	movff	?___fladd+3,selecaoCombustivel@total+3
  2560  00732E                     
  2561                           ;bombaComb.c: 284:         total += (float) (100 * ((buffer[0] % 48)));
  2562  00732E  C06F  F03E         	movff	selecaoCombustivel@total,___fladd@b
  2563  007332  C070  F03F         	movff	selecaoCombustivel@total+1,___fladd@b+1
  2564  007336  C071  F040         	movff	selecaoCombustivel@total+2,___fladd@b+2
  2565  00733A  C072  F041         	movff	selecaoCombustivel@total+3,___fladd@b+3
  2566  00733E  0E00               	movlw	0
  2567  007340  6E27               	movwf	(___awmod@divisor+1)^0,c
  2568  007342  0E30               	movlw	48
  2569  007344  6E26               	movwf	___awmod@divisor^0,c
  2570  007346  C066  F024         	movff	selecaoCombustivel@buffer,___awmod@dividend
  2571  00734A  6A25               	clrf	(___awmod@dividend+1)^0,c
  2572  00734C  ECD7  F028         	call	___awmod	;wreg free
  2573  007350  C024  F02A         	movff	?___awmod,___wmul@multiplier
  2574  007354  C025  F02B         	movff	?___awmod+1,___wmul@multiplier+1
  2575  007358  0E00               	movlw	0
  2576  00735A  6E2D               	movwf	(___wmul@multiplicand+1)^0,c
  2577  00735C  0E64               	movlw	100
  2578  00735E  6E2C               	movwf	___wmul@multiplicand^0,c
  2579  007360  ECFA  F025         	call	___wmul	;wreg free
  2580  007364  C02A  F030         	movff	?___wmul,___xxtofl@val
  2581  007368  C02B  F031         	movff	?___wmul+1,___xxtofl@val+1
  2582  00736C  0E00               	movlw	0
  2583  00736E  BE31               	btfsc	(___xxtofl@val+1)^0,7,c
  2584  007370  0EFF               	movlw	-1
  2585  007372  6E32               	movwf	(___xxtofl@val+2)^0,c
  2586  007374  6E33               	movwf	(___xxtofl@val+3)^0,c
  2587  007376  0E01               	movlw	1
  2588  007378  EC4F  F02D         	call	___xxtofl
  2589  00737C  C030  F042         	movff	?___xxtofl,___fladd@a
  2590  007380  C031  F043         	movff	?___xxtofl+1,___fladd@a+1
  2591  007384  C032  F044         	movff	?___xxtofl+2,___fladd@a+2
  2592  007388  C033  F045         	movff	?___xxtofl+3,___fladd@a+3
  2593  00738C  EC59  F034         	call	___fladd	;wreg free
  2594  007390  C03E  F06F         	movff	?___fladd,selecaoCombustivel@total
  2595  007394  C03F  F070         	movff	?___fladd+1,selecaoCombustivel@total+1
  2596  007398  C040  F071         	movff	?___fladd+2,selecaoCombustivel@total+2
  2597  00739C  C041  F072         	movff	?___fladd+3,selecaoCombustivel@total+3
  2598  0073A0                     
  2599                           ;bombaComb.c: 287:         litros = (total / price);
  2600  0073A0  C06F  F001         	movff	selecaoCombustivel@total,___fldiv@b
  2601  0073A4  C070  F002         	movff	selecaoCombustivel@total+1,___fldiv@b+1
  2602  0073A8  C071  F003         	movff	selecaoCombustivel@total+2,___fldiv@b+2
  2603  0073AC  C072  F004         	movff	selecaoCombustivel@total+3,___fldiv@b+3
  2604  0073B0  C062  F005         	movff	selecaoCombustivel@price,___fldiv@a
  2605  0073B4  C063  F006         	movff	selecaoCombustivel@price+1,___fldiv@a+1
  2606  0073B8  C064  F007         	movff	selecaoCombustivel@price+2,___fldiv@a+2
  2607  0073BC  C065  F008         	movff	selecaoCombustivel@price+3,___fldiv@a+3
  2608  0073C0  EC77  F030         	call	___fldiv	;wreg free
  2609  0073C4  C001  F06B         	movff	?___fldiv,selecaoCombustivel@litros
  2610  0073C8  C002  F06C         	movff	?___fldiv+1,selecaoCombustivel@litros+1
  2611  0073CC  C003  F06D         	movff	?___fldiv+2,selecaoCombustivel@litros+2
  2612  0073D0  C004  F06E         	movff	?___fldiv+3,selecaoCombustivel@litros+3
  2613  0073D4                     l3784:
  2614                           
  2615                           ;bombaComb.c: 294:     abastecimentoBomba(total, litros);
  2616  0073D4  C06F  F04E         	movff	selecaoCombustivel@total,abastecimentoBomba@totalIn
  2617  0073D8  C070  F04F         	movff	selecaoCombustivel@total+1,abastecimentoBomba@totalIn+1
  2618  0073DC  C071  F050         	movff	selecaoCombustivel@total+2,abastecimentoBomba@totalIn+2
  2619  0073E0  C072  F051         	movff	selecaoCombustivel@total+3,abastecimentoBomba@totalIn+3
  2620  0073E4  C06B  F052         	movff	selecaoCombustivel@litros,abastecimentoBomba@litrosIn
  2621  0073E8  C06C  F053         	movff	selecaoCombustivel@litros+1,abastecimentoBomba@litrosIn+1
  2622  0073EC  C06D  F054         	movff	selecaoCombustivel@litros+2,abastecimentoBomba@litrosIn+2
  2623  0073F0  C06E  F055         	movff	selecaoCombustivel@litros+3,abastecimentoBomba@litrosIn+3
  2624  0073F4  ECFD  F039         	call	_abastecimentoBomba	;wreg free
  2625  0073F8                     l437:
  2626  0073F8  0012               	return		;funcret
  2627  0073FA                     __end_of_selecaoCombustivel:
  2628                           	callstack 0
  2629                           
  2630 ;; *************** function _serial_rx *****************
  2631 ;; Defined at:
  2632 ;;		line 67 in file "serial.c"
  2633 ;; Parameters:    Size  Location     Type
  2634 ;;  timeout         2    6[COMRAM] unsigned int 
  2635 ;; Auto vars:     Size  Location     Type
  2636 ;;  to              2    8[COMRAM] unsigned int 
  2637 ;; Return value:  Size  Location     Type
  2638 ;;                  1    wreg      unsigned char 
  2639 ;; Registers used:
  2640 ;;		wreg, status,2, status,0, cstack
  2641 ;; Tracked objects:
  2642 ;;		On entry : 0/0
  2643 ;;		On exit  : 0/0
  2644 ;;		Unchanged: 0/0
  2645 ;; Data sizes:     COMRAM   BANK0   BANK1   BANK2   BANK3   BANK4   BANK5
  2646 ;;      Params:         2       0       0       0       0       0       0
  2647 ;;      Locals:         2       0       0       0       0       0       0
  2648 ;;      Temps:          0       0       0       0       0       0       0
  2649 ;;      Totals:         4       0       0       0       0       0       0
  2650 ;;Total ram usage:        4 bytes
  2651 ;; Hardware stack levels used: 1
  2652 ;; Hardware stack levels required when called: 1
  2653 ;; This function calls:
  2654 ;;		_atraso_ms
  2655 ;; This function is called by:
  2656 ;;		_selecaoCombustivel
  2657 ;; This function uses a non-reentrant model
  2658 ;;
  2659                           
  2660                           	psect	text6
  2661  005120                     __ptext6:
  2662                           	callstack 0
  2663  005120                     _serial_rx:
  2664                           	callstack 28
  2665  005120                     
  2666                           ;serial.c: 67: unsigned char serial_rx(unsigned int timeout);serial.c: 68: {;serial.c: 6
      +                          9:   unsigned int to=0;
  2667  005120  0E00               	movlw	0
  2668  005122  6E0A               	movwf	(serial_rx@to+1)^0,c
  2669  005124  0E00               	movlw	0
  2670  005126  6E09               	movwf	serial_rx@to^0,c
  2671  005128                     
  2672                           ;serial.c: 71:   if(RCSTAbits.FERR || RCSTAbits.OERR)
  2673  005128  B4AB               	btfsc	171,2,c	;volatile
  2674  00512A  EF99  F028         	goto	u3751
  2675  00512E  EF9B  F028         	goto	u3750
  2676  005132                     u3751:
  2677  005132  EFA2  F028         	goto	l34
  2678  005136                     u3750:
  2679  005136  A2AB               	btfss	171,1,c	;volatile
  2680  005138  EFA0  F028         	goto	u3761
  2681  00513C  EFA2  F028         	goto	u3760
  2682  005140                     u3761:
  2683  005140  EFB0  F028         	goto	l3306
  2684  005144                     u3760:
  2685  005144                     l34:
  2686                           
  2687                           ;serial.c: 72:   {;serial.c: 73:       RCSTAbits.CREN=0;
  2688  005144  98AB               	bcf	171,4,c	;volatile
  2689                           
  2690                           ;serial.c: 74:       RCSTAbits.CREN=1;
  2691  005146  88AB               	bsf	171,4,c	;volatile
  2692  005148  EFB0  F028         	goto	l3306
  2693  00514C                     l3302:
  2694                           
  2695                           ;serial.c: 78:   {;serial.c: 79:     atraso_ms(20);
  2696  00514C  0E00               	movlw	0
  2697  00514E  6E02               	movwf	(atraso_ms@num+1)^0,c
  2698  005150  0E14               	movlw	20
  2699  005152  6E01               	movwf	atraso_ms@num^0,c
  2700  005154  ECE7  F027         	call	_atraso_ms	;wreg free
  2701  005158                     
  2702                           ;serial.c: 80:     to+=20;
  2703  005158  0E14               	movlw	20
  2704  00515A  2609               	addwf	serial_rx@to^0,f,c
  2705  00515C  0E00               	movlw	0
  2706  00515E  220A               	addwfc	(serial_rx@to+1)^0,f,c
  2707  005160                     l3306:
  2708                           
  2709                           ;serial.c: 77:   while(((to < timeout)||(!timeout))&&(!PIR1bits.RCIF))
  2710  005160  5007               	movf	serial_rx@timeout^0,w,c
  2711  005162  5C09               	subwf	serial_rx@to^0,w,c
  2712  005164  5008               	movf	(serial_rx@timeout+1)^0,w,c
  2713  005166  580A               	subwfb	(serial_rx@to+1)^0,w,c
  2714  005168  A0D8               	btfss	status,0,c
  2715  00516A  EFB9  F028         	goto	u3771
  2716  00516E  EFBB  F028         	goto	u3770
  2717  005172                     u3771:
  2718  005172  EFC4  F028         	goto	l40
  2719  005176                     u3770:
  2720  005176  5007               	movf	serial_rx@timeout^0,w,c
  2721  005178  1008               	iorwf	(serial_rx@timeout+1)^0,w,c
  2722  00517A  A4D8               	btfss	status,2,c
  2723  00517C  EFC2  F028         	goto	u3781
  2724  005180  EFC4  F028         	goto	u3780
  2725  005184                     u3781:
  2726  005184  EFCB  F028         	goto	l41
  2727  005188                     u3780:
  2728  005188                     l40:
  2729  005188  AA9E               	btfss	158,5,c	;volatile
  2730  00518A  EFC9  F028         	goto	u3791
  2731  00518E  EFCB  F028         	goto	u3790
  2732  005192                     u3791:
  2733  005192  EFA6  F028         	goto	l3302
  2734  005196                     u3790:
  2735  005196                     l41:
  2736                           
  2737                           ;serial.c: 82:   if(PIR1bits.RCIF)
  2738  005196  AA9E               	btfss	158,5,c	;volatile
  2739  005198  EFD0  F028         	goto	u3801
  2740  00519C  EFD2  F028         	goto	u3800
  2741  0051A0                     u3801:
  2742  0051A0  EFD5  F028         	goto	l3316
  2743  0051A4                     u3800:
  2744  0051A4                     
  2745                           ;serial.c: 83:     return RCREG;
  2746  0051A4  50AE               	movf	174,w,c	;volatile
  2747  0051A6  EFD6  F028         	goto	l43
  2748  0051AA                     l3316:
  2749                           
  2750                           ;serial.c: 85:     return 0xA5;
  2751  0051AA  0EA5               	movlw	165
  2752  0051AC                     l43:
  2753  0051AC  0012               	return		;funcret
  2754  0051AE                     __end_of_serial_rx:
  2755                           	callstack 0
  2756                           
  2757 ;; *************** function _opcaoInvalida *****************
  2758 ;; Defined at:
  2759 ;;		line 43 in file "bombaComb.c"
  2760 ;; Parameters:    Size  Location     Type
  2761 ;;		None
  2762 ;; Auto vars:     Size  Location     Type
  2763 ;;		None
  2764 ;; Return value:  Size  Location     Type
  2765 ;;                  1    wreg      void 
  2766 ;; Registers used:
  2767 ;;		wreg, status,2, status,0, tblptrl, tblptrh, tblptru, cstack
  2768 ;; Tracked objects:
  2769 ;;		On entry : 0/0
  2770 ;;		On exit  : 0/0
  2771 ;;		Unchanged: 0/0
  2772 ;; Data sizes:     COMRAM   BANK0   BANK1   BANK2   BANK3   BANK4   BANK5
  2773 ;;      Params:         0       0       0       0       0       0       0
  2774 ;;      Locals:         0       0       0       0       0       0       0
  2775 ;;      Temps:          0       0       0       0       0       0       0
  2776 ;;      Totals:         0       0       0       0       0       0       0
  2777 ;;Total ram usage:        0 bytes
  2778 ;; Hardware stack levels used: 1
  2779 ;; Hardware stack levels required when called: 6
  2780 ;; This function calls:
  2781 ;;		_atraso_ms
  2782 ;;		_lcdCommand
  2783 ;;		_lcdString
  2784 ;;		_serial_tx_str
  2785 ;; This function is called by:
  2786 ;;		_selecaoCombustivel
  2787 ;; This function uses a non-reentrant model
  2788 ;;
  2789                           
  2790                           	psect	text7
  2791  004D8E                     __ptext7:
  2792                           	callstack 0
  2793  004D8E                     _opcaoInvalida:
  2794                           	callstack 23
  2795  004D8E                     
  2796                           ;bombaComb.c: 46:     lcdCommand(0x01);
  2797  004D8E  0E01               	movlw	1
  2798  004D90  ECA6  F025         	call	_lcdCommand
  2799                           
  2800                           ;bombaComb.c: 47:     lcdCommand(0x80);
  2801  004D94  0E80               	movlw	128
  2802  004D96  ECA6  F025         	call	_lcdCommand
  2803  004D9A                     
  2804                           ;bombaComb.c: 48:     lcdString("     Opcao");
  2805  004D9A  0EC4               	movlw	low STR_11
  2806  004D9C  6E0F               	movwf	lcdString@msg^0,c
  2807  004D9E  0E7F               	movlw	high STR_11
  2808  004DA0  6E10               	movwf	(lcdString@msg+1)^0,c
  2809  004DA2  EC38  F027         	call	_lcdString	;wreg free
  2810  004DA6                     
  2811                           ;bombaComb.c: 49:     lcdCommand(0xC0);
  2812  004DA6  0EC0               	movlw	192
  2813  004DA8  ECA6  F025         	call	_lcdCommand
  2814                           
  2815                           ;bombaComb.c: 50:     lcdString("   Invalida!");
  2816  004DAC  0E7A               	movlw	low STR_12
  2817  004DAE  6E0F               	movwf	lcdString@msg^0,c
  2818  004DB0  0E7F               	movlw	high STR_12
  2819  004DB2  6E10               	movwf	(lcdString@msg+1)^0,c
  2820  004DB4  EC38  F027         	call	_lcdString	;wreg free
  2821                           
  2822                           ;bombaComb.c: 51:     serial_tx_str("\r\nOpcao invalida!\n\r");
  2823  004DB8  0EB5               	movlw	low STR_13
  2824  004DBA  6E02               	movwf	serial_tx_str@val^0,c
  2825  004DBC  0E7E               	movlw	high STR_13
  2826  004DBE  6E03               	movwf	(serial_tx_str@val+1)^0,c
  2827  004DC0  EC10  F027         	call	_serial_tx_str	;wreg free
  2828  004DC4                     
  2829                           ;bombaComb.c: 54:     atraso_ms(2000);
  2830  004DC4  0E07               	movlw	7
  2831  004DC6  6E02               	movwf	(atraso_ms@num+1)^0,c
  2832  004DC8  0ED0               	movlw	208
  2833  004DCA  6E01               	movwf	atraso_ms@num^0,c
  2834  004DCC  ECE7  F027         	call	_atraso_ms	;wreg free
  2835  004DD0  0012               	return		;funcret
  2836  004DD2                     __end_of_opcaoInvalida:
  2837                           	callstack 0
  2838                           
  2839 ;; *************** function _abastecimentoBomba *****************
  2840 ;; Defined at:
  2841 ;;		line 59 in file "bombaComb.c"
  2842 ;; Parameters:    Size  Location     Type
  2843 ;;  totalIn         4   77[COMRAM] float 
  2844 ;;  litrosIn        4   81[COMRAM] float 
  2845 ;; Auto vars:     Size  Location     Type
  2846 ;;  cont            4   88[COMRAM] float 
  2847 ;;  tempo           2   86[COMRAM] int 
  2848 ;;  tecla           1   85[COMRAM] unsigned char 
  2849 ;; Return value:  Size  Location     Type
  2850 ;;                  1    wreg      void 
  2851 ;; Registers used:
  2852 ;;		wreg, status,2, status,0, tblptrl, tblptrh, tblptru, cstack
  2853 ;; Tracked objects:
  2854 ;;		On entry : 0/0
  2855 ;;		On exit  : 0/0
  2856 ;;		Unchanged: 0/0
  2857 ;; Data sizes:     COMRAM   BANK0   BANK1   BANK2   BANK3   BANK4   BANK5
  2858 ;;      Params:         8       0       0       0       0       0       0
  2859 ;;      Locals:         7       0       0       0       0       0       0
  2860 ;;      Temps:          0       0       0       0       0       0       0
  2861 ;;      Totals:        15       0       0       0       0       0       0
  2862 ;;Total ram usage:       15 bytes
  2863 ;; Hardware stack levels used: 1
  2864 ;; Hardware stack levels required when called: 6
  2865 ;; This function calls:
  2866 ;;		___awmod
  2867 ;;		___fladd
  2868 ;;		___fldiv
  2869 ;;		___flge
  2870 ;;		___fltol
  2871 ;;		_atraso_ms
  2872 ;;		_digitalWrite
  2873 ;;		_kpDebounce
  2874 ;;		_kpReadKey
  2875 ;;		_lcdChar
  2876 ;;		_lcdCommand
  2877 ;;		_lcdString
  2878 ;;		_rgbColor
  2879 ;;		_serial_tx
  2880 ;;		_serial_tx_str
  2881 ;;		_ssdDigit
  2882 ;;		_ssdUpdate
  2883 ;;		_timerEnded
  2884 ;;		_timerReset
  2885 ;;		_timerWait
  2886 ;; This function is called by:
  2887 ;;		_selecaoCombustivel
  2888 ;; This function uses a non-reentrant model
  2889 ;;
  2890                           
  2891                           	psect	text8
  2892  0073FA                     __ptext8:
  2893                           	callstack 0
  2894  0073FA                     _abastecimentoBomba:
  2895                           	callstack 23
  2896  0073FA                     
  2897                           ;bombaComb.c: 60:     char tecla;;bombaComb.c: 61:     int tempo = 0;
  2898  0073FA  0E00               	movlw	0
  2899  0073FC  6E58               	movwf	(abastecimentoBomba@tempo+1)^0,c
  2900  0073FE  0E00               	movlw	0
  2901  007400  6E57               	movwf	abastecimentoBomba@tempo^0,c
  2902                           
  2903                           ;bombaComb.c: 62:     float cont = 0;
  2904  007402  0E00               	movlw	0
  2905  007404  6E59               	movwf	abastecimentoBomba@cont^0,c
  2906  007406  0E00               	movlw	0
  2907  007408  6E5A               	movwf	(abastecimentoBomba@cont+1)^0,c
  2908  00740A  0E00               	movlw	0
  2909  00740C  6E5B               	movwf	(abastecimentoBomba@cont+2)^0,c
  2910  00740E  0E00               	movlw	0
  2911  007410  6E5C               	movwf	(abastecimentoBomba@cont+3)^0,c
  2912  007412                     
  2913                           ;bombaComb.c: 65:     rgbColor(2);
  2914  007412  0E00               	movlw	0
  2915  007414  6E08               	movwf	(rgbColor@led+1)^0,c
  2916  007416  0E02               	movlw	2
  2917  007418  6E07               	movwf	rgbColor@led^0,c
  2918  00741A  EC2F  F029         	call	_rgbColor	;wreg free
  2919  00741E                     
  2920                           ;bombaComb.c: 68:     lcdCommand(0x01);
  2921  00741E  0E01               	movlw	1
  2922  007420  ECA6  F025         	call	_lcdCommand
  2923  007424                     
  2924                           ;bombaComb.c: 69:     lcdCommand(0x80);
  2925  007424  0E80               	movlw	128
  2926  007426  ECA6  F025         	call	_lcdCommand
  2927  00742A                     
  2928                           ;bombaComb.c: 70:     lcdString("Aperte (d7)");
  2929  00742A  0EAD               	movlw	low STR_14
  2930  00742C  6E0F               	movwf	lcdString@msg^0,c
  2931  00742E  0E7F               	movlw	high STR_14
  2932  007430  6E10               	movwf	(lcdString@msg+1)^0,c
  2933  007432  EC38  F027         	call	_lcdString	;wreg free
  2934  007436                     
  2935                           ;bombaComb.c: 71:     lcdCommand(0xC0);
  2936  007436  0EC0               	movlw	192
  2937  007438  ECA6  F025         	call	_lcdCommand
  2938  00743C                     
  2939                           ;bombaComb.c: 72:     lcdString("para comecar...");
  2940  00743C  0E14               	movlw	low STR_15
  2941  00743E  6E0F               	movwf	lcdString@msg^0,c
  2942  007440  0E7F               	movlw	high STR_15
  2943  007442  6E10               	movwf	(lcdString@msg+1)^0,c
  2944  007444  EC38  F027         	call	_lcdString	;wreg free
  2945  007448                     
  2946                           ;bombaComb.c: 73:     serial_tx_str("\r\n\nAperte (d7) no teclado para comecar a abastec
      +                          er...\n\r");
  2947  007448  0E5B               	movlw	low STR_16
  2948  00744A  6E02               	movwf	serial_tx_str@val^0,c
  2949  00744C  0E7D               	movlw	high STR_16
  2950  00744E  6E03               	movwf	(serial_tx_str@val+1)^0,c
  2951  007450  EC10  F027         	call	_serial_tx_str	;wreg free
  2952                           
  2953                           ;bombaComb.c: 76:     while ((tecla != 's') && (tecla != 'S')) {
  2954  007454  EF31  F03A         	goto	l3352
  2955  007458                     l3348:
  2956                           
  2957                           ;bombaComb.c: 77:         kpDebounce();
  2958  007458  EC45  F02B         	call	_kpDebounce	;wreg free
  2959  00745C                     
  2960                           ;bombaComb.c: 79:         tecla = kpReadKey();
  2961  00745C  EC53  F028         	call	_kpReadKey	;wreg free
  2962  007460  6E56               	movwf	abastecimentoBomba@tecla^0,c
  2963  007462                     l3352:
  2964                           
  2965                           ;bombaComb.c: 76:     while ((tecla != 's') && (tecla != 'S')) {
  2966  007462  0E73               	movlw	115
  2967  007464  1856               	xorwf	abastecimentoBomba@tecla^0,w,c
  2968  007466  B4D8               	btfsc	status,2,c
  2969  007468  EF38  F03A         	goto	u3811
  2970  00746C  EF3A  F03A         	goto	u3810
  2971  007470                     u3811:
  2972  007470  EF43  F03A         	goto	l3356
  2973  007474                     u3810:
  2974  007474  0E53               	movlw	83
  2975  007476  1856               	xorwf	abastecimentoBomba@tecla^0,w,c
  2976  007478  A4D8               	btfss	status,2,c
  2977  00747A  EF41  F03A         	goto	u3821
  2978  00747E  EF43  F03A         	goto	u3820
  2979  007482                     u3821:
  2980  007482  EF2C  F03A         	goto	l3348
  2981  007486                     u3820:
  2982  007486                     l3356:
  2983                           
  2984                           ;bombaComb.c: 83:     rgbColor(4);
  2985  007486  0E00               	movlw	0
  2986  007488  6E08               	movwf	(rgbColor@led+1)^0,c
  2987  00748A  0E04               	movlw	4
  2988  00748C  6E07               	movwf	rgbColor@led^0,c
  2989  00748E  EC2F  F029         	call	_rgbColor	;wreg free
  2990                           
  2991                           ;bombaComb.c: 86:     lcdCommand(0x01);
  2992  007492  0E01               	movlw	1
  2993  007494  ECA6  F025         	call	_lcdCommand
  2994  007498                     
  2995                           ;bombaComb.c: 87:     lcdString("Abastecendo...");
  2996  007498  0E24               	movlw	low STR_17
  2997  00749A  6E0F               	movwf	lcdString@msg^0,c
  2998  00749C  0E7F               	movlw	high STR_17
  2999  00749E  6E10               	movwf	(lcdString@msg+1)^0,c
  3000  0074A0  EC38  F027         	call	_lcdString	;wreg free
  3001  0074A4                     
  3002                           ;bombaComb.c: 88:     serial_tx_str("\r\nAbastecendo...\n\r");
  3003  0074A4  0EDD               	movlw	low STR_18
  3004  0074A6  6E02               	movwf	serial_tx_str@val^0,c
  3005  0074A8  0E7E               	movlw	high STR_18
  3006  0074AA  6E03               	movwf	(serial_tx_str@val+1)^0,c
  3007  0074AC  EC10  F027         	call	_serial_tx_str	;wreg free
  3008  0074B0                     l420:
  3009                           
  3010                           ;bombaComb.c: 93:         timerReset(5000);
  3011  0074B0  0E13               	movlw	19
  3012  0074B2  6E02               	movwf	(timerReset@tempo+1)^0,c
  3013  0074B4  0E88               	movlw	136
  3014  0074B6  6E01               	movwf	timerReset@tempo^0,c
  3015  0074B8  ECC4  F025         	call	_timerReset	;wreg free
  3016  0074BC                     
  3017                           ;bombaComb.c: 96:         ssdUpdate();
  3018  0074BC  EC99  F02C         	call	_ssdUpdate	;wreg free
  3019  0074C0                     
  3020                           ;bombaComb.c: 99:         if (tempo == 10) {
  3021  0074C0  0E0A               	movlw	10
  3022  0074C2  1857               	xorwf	abastecimentoBomba@tempo^0,w,c
  3023  0074C4  1058               	iorwf	(abastecimentoBomba@tempo+1)^0,w,c
  3024  0074C6  A4D8               	btfss	status,2,c
  3025  0074C8  EF68  F03A         	goto	u3831
  3026  0074CC  EF6A  F03A         	goto	u3830
  3027  0074D0                     u3831:
  3028  0074D0  EF8A  F03A         	goto	l3370
  3029  0074D4                     u3830:
  3030  0074D4                     
  3031                           ;bombaComb.c: 100:             cont += 0.1;
  3032  0074D4  C059  F03E         	movff	abastecimentoBomba@cont,___fladd@b
  3033  0074D8  C05A  F03F         	movff	abastecimentoBomba@cont+1,___fladd@b+1
  3034  0074DC  C05B  F040         	movff	abastecimentoBomba@cont+2,___fladd@b+2
  3035  0074E0  C05C  F041         	movff	abastecimentoBomba@cont+3,___fladd@b+3
  3036  0074E4  0ECD               	movlw	205
  3037  0074E6  6E42               	movwf	___fladd@a^0,c
  3038  0074E8  0ECC               	movlw	204
  3039  0074EA  6E43               	movwf	(___fladd@a+1)^0,c
  3040  0074EC  0ECC               	movlw	204
  3041  0074EE  6E44               	movwf	(___fladd@a+2)^0,c
  3042  0074F0  0E3D               	movlw	61
  3043  0074F2  6E45               	movwf	(___fladd@a+3)^0,c
  3044  0074F4  EC59  F034         	call	___fladd	;wreg free
  3045  0074F8  C03E  F059         	movff	?___fladd,abastecimentoBomba@cont
  3046  0074FC  C03F  F05A         	movff	?___fladd+1,abastecimentoBomba@cont+1
  3047  007500  C040  F05B         	movff	?___fladd+2,abastecimentoBomba@cont+2
  3048  007504  C041  F05C         	movff	?___fladd+3,abastecimentoBomba@cont+3
  3049  007508                     
  3050                           ;bombaComb.c: 101:             tempo = 0;
  3051  007508  0E00               	movlw	0
  3052  00750A  6E58               	movwf	(abastecimentoBomba@tempo+1)^0,c
  3053  00750C  0E00               	movlw	0
  3054  00750E  6E57               	movwf	abastecimentoBomba@tempo^0,c
  3055                           
  3056                           ;bombaComb.c: 102:         }
  3057  007510  EF8C  F03A         	goto	l3372
  3058  007514                     l3370:
  3059                           
  3060                           ;bombaComb.c: 104:             tempo++;
  3061  007514  4A57               	infsnz	abastecimentoBomba@tempo^0,f,c
  3062  007516  2A58               	incf	(abastecimentoBomba@tempo+1)^0,f,c
  3063  007518                     l3372:
  3064                           
  3065                           ;bombaComb.c: 108:         ssdDigit((((int) (cont/100)) % 10), 0);
  3066  007518  0E00               	movlw	0
  3067  00751A  6E2A               	movwf	ssdDigit@pos^0,c
  3068  00751C  0E00               	movlw	0
  3069  00751E  6E05               	movwf	___fldiv@a^0,c
  3070  007520  0E00               	movlw	0
  3071  007522  6E06               	movwf	(___fldiv@a+1)^0,c
  3072  007524  0EC8               	movlw	200
  3073  007526  6E07               	movwf	(___fldiv@a+2)^0,c
  3074  007528  0E42               	movlw	66
  3075  00752A  6E08               	movwf	(___fldiv@a+3)^0,c
  3076  00752C  C059  F001         	movff	abastecimentoBomba@cont,___fldiv@b
  3077  007530  C05A  F002         	movff	abastecimentoBomba@cont+1,___fldiv@b+1
  3078  007534  C05B  F003         	movff	abastecimentoBomba@cont+2,___fldiv@b+2
  3079  007538  C05C  F004         	movff	abastecimentoBomba@cont+3,___fldiv@b+3
  3080  00753C  EC77  F030         	call	___fldiv	;wreg free
  3081  007540  C001  F01A         	movff	?___fldiv,___fltol@f1
  3082  007544  C002  F01B         	movff	?___fldiv+1,___fltol@f1+1
  3083  007548  C003  F01C         	movff	?___fldiv+2,___fltol@f1+2
  3084  00754C  C004  F01D         	movff	?___fldiv+3,___fltol@f1+3
  3085  007550  ECC2  F02A         	call	___fltol	;wreg free
  3086  007554  C01A  F024         	movff	?___fltol,___awmod@dividend
  3087  007558  C01B  F025         	movff	?___fltol+1,___awmod@dividend+1
  3088  00755C  0E00               	movlw	0
  3089  00755E  6E27               	movwf	(___awmod@divisor+1)^0,c
  3090  007560  0E0A               	movlw	10
  3091  007562  6E26               	movwf	___awmod@divisor^0,c
  3092  007564  ECD7  F028         	call	___awmod	;wreg free
  3093  007568  5024               	movf	?___awmod^0,w,c
  3094  00756A  EC8E  F027         	call	_ssdDigit
  3095  00756E                     
  3096                           ;bombaComb.c: 109:         ssdDigit((((int) (cont/10)) % 10), 1);
  3097  00756E  0E01               	movlw	1
  3098  007570  6E2A               	movwf	ssdDigit@pos^0,c
  3099  007572  0E00               	movlw	0
  3100  007574  6E05               	movwf	___fldiv@a^0,c
  3101  007576  0E00               	movlw	0
  3102  007578  6E06               	movwf	(___fldiv@a+1)^0,c
  3103  00757A  0E20               	movlw	32
  3104  00757C  6E07               	movwf	(___fldiv@a+2)^0,c
  3105  00757E  0E41               	movlw	65
  3106  007580  6E08               	movwf	(___fldiv@a+3)^0,c
  3107  007582  C059  F001         	movff	abastecimentoBomba@cont,___fldiv@b
  3108  007586  C05A  F002         	movff	abastecimentoBomba@cont+1,___fldiv@b+1
  3109  00758A  C05B  F003         	movff	abastecimentoBomba@cont+2,___fldiv@b+2
  3110  00758E  C05C  F004         	movff	abastecimentoBomba@cont+3,___fldiv@b+3
  3111  007592  EC77  F030         	call	___fldiv	;wreg free
  3112  007596  C001  F01A         	movff	?___fldiv,___fltol@f1
  3113  00759A  C002  F01B         	movff	?___fldiv+1,___fltol@f1+1
  3114  00759E  C003  F01C         	movff	?___fldiv+2,___fltol@f1+2
  3115  0075A2  C004  F01D         	movff	?___fldiv+3,___fltol@f1+3
  3116  0075A6  ECC2  F02A         	call	___fltol	;wreg free
  3117  0075AA  C01A  F024         	movff	?___fltol,___awmod@dividend
  3118  0075AE  C01B  F025         	movff	?___fltol+1,___awmod@dividend+1
  3119  0075B2  0E00               	movlw	0
  3120  0075B4  6E27               	movwf	(___awmod@divisor+1)^0,c
  3121  0075B6  0E0A               	movlw	10
  3122  0075B8  6E26               	movwf	___awmod@divisor^0,c
  3123  0075BA  ECD7  F028         	call	___awmod	;wreg free
  3124  0075BE  5024               	movf	?___awmod^0,w,c
  3125  0075C0  EC8E  F027         	call	_ssdDigit
  3126  0075C4                     
  3127                           ;bombaComb.c: 110:         ssdDigit((((int) (cont/1)) % 10), 2);
  3128  0075C4  0E02               	movlw	2
  3129  0075C6  6E2A               	movwf	ssdDigit@pos^0,c
  3130  0075C8  0E00               	movlw	0
  3131  0075CA  6E05               	movwf	___fldiv@a^0,c
  3132  0075CC  0E00               	movlw	0
  3133  0075CE  6E06               	movwf	(___fldiv@a+1)^0,c
  3134  0075D0  0E80               	movlw	128
  3135  0075D2  6E07               	movwf	(___fldiv@a+2)^0,c
  3136  0075D4  0E3F               	movlw	63
  3137  0075D6  6E08               	movwf	(___fldiv@a+3)^0,c
  3138  0075D8  C059  F001         	movff	abastecimentoBomba@cont,___fldiv@b
  3139  0075DC  C05A  F002         	movff	abastecimentoBomba@cont+1,___fldiv@b+1
  3140  0075E0  C05B  F003         	movff	abastecimentoBomba@cont+2,___fldiv@b+2
  3141  0075E4  C05C  F004         	movff	abastecimentoBomba@cont+3,___fldiv@b+3
  3142  0075E8  EC77  F030         	call	___fldiv	;wreg free
  3143  0075EC  C001  F01A         	movff	?___fldiv,___fltol@f1
  3144  0075F0  C002  F01B         	movff	?___fldiv+1,___fltol@f1+1
  3145  0075F4  C003  F01C         	movff	?___fldiv+2,___fltol@f1+2
  3146  0075F8  C004  F01D         	movff	?___fldiv+3,___fltol@f1+3
  3147  0075FC  ECC2  F02A         	call	___fltol	;wreg free
  3148  007600  C01A  F024         	movff	?___fltol,___awmod@dividend
  3149  007604  C01B  F025         	movff	?___fltol+1,___awmod@dividend+1
  3150  007608  0E00               	movlw	0
  3151  00760A  6E27               	movwf	(___awmod@divisor+1)^0,c
  3152  00760C  0E0A               	movlw	10
  3153  00760E  6E26               	movwf	___awmod@divisor^0,c
  3154  007610  ECD7  F028         	call	___awmod	;wreg free
  3155  007614  5024               	movf	?___awmod^0,w,c
  3156  007616  EC8E  F027         	call	_ssdDigit
  3157  00761A                     
  3158                           ;bombaComb.c: 111:         ssdDigit((((int) (cont/0.1)) % 10), 3);
  3159  00761A  0E03               	movlw	3
  3160  00761C  6E2A               	movwf	ssdDigit@pos^0,c
  3161  00761E  0ECD               	movlw	205
  3162  007620  6E05               	movwf	___fldiv@a^0,c
  3163  007622  0ECC               	movlw	204
  3164  007624  6E06               	movwf	(___fldiv@a+1)^0,c
  3165  007626  0ECC               	movlw	204
  3166  007628  6E07               	movwf	(___fldiv@a+2)^0,c
  3167  00762A  0E3D               	movlw	61
  3168  00762C  6E08               	movwf	(___fldiv@a+3)^0,c
  3169  00762E  C059  F001         	movff	abastecimentoBomba@cont,___fldiv@b
  3170  007632  C05A  F002         	movff	abastecimentoBomba@cont+1,___fldiv@b+1
  3171  007636  C05B  F003         	movff	abastecimentoBomba@cont+2,___fldiv@b+2
  3172  00763A  C05C  F004         	movff	abastecimentoBomba@cont+3,___fldiv@b+3
  3173  00763E  EC77  F030         	call	___fldiv	;wreg free
  3174  007642  C001  F01A         	movff	?___fldiv,___fltol@f1
  3175  007646  C002  F01B         	movff	?___fldiv+1,___fltol@f1+1
  3176  00764A  C003  F01C         	movff	?___fldiv+2,___fltol@f1+2
  3177  00764E  C004  F01D         	movff	?___fldiv+3,___fltol@f1+3
  3178  007652  ECC2  F02A         	call	___fltol	;wreg free
  3179  007656  C01A  F024         	movff	?___fltol,___awmod@dividend
  3180  00765A  C01B  F025         	movff	?___fltol+1,___awmod@dividend+1
  3181  00765E  0E00               	movlw	0
  3182  007660  6E27               	movwf	(___awmod@divisor+1)^0,c
  3183  007662  0E0A               	movlw	10
  3184  007664  6E26               	movwf	___awmod@divisor^0,c
  3185  007666  ECD7  F028         	call	___awmod	;wreg free
  3186  00766A  5024               	movf	?___awmod^0,w,c
  3187  00766C  EC8E  F027         	call	_ssdDigit
  3188  007670                     
  3189                           ;bombaComb.c: 114:         timerWait();
  3190  007670  EC89  F025         	call	_timerWait	;wreg free
  3191  007674                     
  3192                           ;bombaComb.c: 115:     } while (cont <= litrosIn);
  3193  007674  C052  F001         	movff	abastecimentoBomba@litrosIn,___flge@ff1
  3194  007678  C053  F002         	movff	abastecimentoBomba@litrosIn+1,___flge@ff1+1
  3195  00767C  C054  F003         	movff	abastecimentoBomba@litrosIn+2,___flge@ff1+2
  3196  007680  C055  F004         	movff	abastecimentoBomba@litrosIn+3,___flge@ff1+3
  3197  007684  C059  F005         	movff	abastecimentoBomba@cont,___flge@ff2
  3198  007688  C05A  F006         	movff	abastecimentoBomba@cont+1,___flge@ff2+1
  3199  00768C  C05B  F007         	movff	abastecimentoBomba@cont+2,___flge@ff2+2
  3200  007690  C05C  F008         	movff	abastecimentoBomba@cont+3,___flge@ff2+3
  3201  007694  EC40  F02A         	call	___flge	;wreg free
  3202  007698  B0D8               	btfsc	status,0,c
  3203  00769A  EF51  F03B         	goto	u3841
  3204  00769E  EF53  F03B         	goto	u3840
  3205  0076A2                     u3841:
  3206  0076A2  EF58  F03A         	goto	l420
  3207  0076A6                     u3840:
  3208  0076A6                     
  3209                           ;bombaComb.c: 118:     lcdCommand(0x01);
  3210  0076A6  0E01               	movlw	1
  3211  0076A8  ECA6  F025         	call	_lcdCommand
  3212                           
  3213                           ;bombaComb.c: 119:     lcdCommand(0x80);
  3214  0076AC  0E80               	movlw	128
  3215  0076AE  ECA6  F025         	call	_lcdCommand
  3216  0076B2                     
  3217                           ;bombaComb.c: 120:     lcdString("Preco: R$ ");
  3218  0076B2  0EB9               	movlw	low STR_19
  3219  0076B4  6E0F               	movwf	lcdString@msg^0,c
  3220  0076B6  0E7F               	movlw	high STR_19
  3221  0076B8  6E10               	movwf	(lcdString@msg+1)^0,c
  3222  0076BA  EC38  F027         	call	_lcdString	;wreg free
  3223  0076BE                     
  3224                           ;bombaComb.c: 121:     lcdChar((((int) (totalIn/100)) % 10) + 48);
  3225  0076BE  0E00               	movlw	0
  3226  0076C0  6E05               	movwf	___fldiv@a^0,c
  3227  0076C2  0E00               	movlw	0
  3228  0076C4  6E06               	movwf	(___fldiv@a+1)^0,c
  3229  0076C6  0EC8               	movlw	200
  3230  0076C8  6E07               	movwf	(___fldiv@a+2)^0,c
  3231  0076CA  0E42               	movlw	66
  3232  0076CC  6E08               	movwf	(___fldiv@a+3)^0,c
  3233  0076CE  C04E  F001         	movff	abastecimentoBomba@totalIn,___fldiv@b
  3234  0076D2  C04F  F002         	movff	abastecimentoBomba@totalIn+1,___fldiv@b+1
  3235  0076D6  C050  F003         	movff	abastecimentoBomba@totalIn+2,___fldiv@b+2
  3236  0076DA  C051  F004         	movff	abastecimentoBomba@totalIn+3,___fldiv@b+3
  3237  0076DE  EC77  F030         	call	___fldiv	;wreg free
  3238  0076E2  C001  F01A         	movff	?___fldiv,___fltol@f1
  3239  0076E6  C002  F01B         	movff	?___fldiv+1,___fltol@f1+1
  3240  0076EA  C003  F01C         	movff	?___fldiv+2,___fltol@f1+2
  3241  0076EE  C004  F01D         	movff	?___fldiv+3,___fltol@f1+3
  3242  0076F2  ECC2  F02A         	call	___fltol	;wreg free
  3243  0076F6  C01A  F024         	movff	?___fltol,___awmod@dividend
  3244  0076FA  C01B  F025         	movff	?___fltol+1,___awmod@dividend+1
  3245  0076FE  0E00               	movlw	0
  3246  007700  6E27               	movwf	(___awmod@divisor+1)^0,c
  3247  007702  0E0A               	movlw	10
  3248  007704  6E26               	movwf	___awmod@divisor^0,c
  3249  007706  ECD7  F028         	call	___awmod	;wreg free
  3250  00770A  5024               	movf	?___awmod^0,w,c
  3251  00770C  0F30               	addlw	48
  3252  00770E  ECB5  F025         	call	_lcdChar
  3253  007712                     
  3254                           ;bombaComb.c: 122:     lcdChar((((int) (totalIn/10)) % 10) + 48);
  3255  007712  0E00               	movlw	0
  3256  007714  6E05               	movwf	___fldiv@a^0,c
  3257  007716  0E00               	movlw	0
  3258  007718  6E06               	movwf	(___fldiv@a+1)^0,c
  3259  00771A  0E20               	movlw	32
  3260  00771C  6E07               	movwf	(___fldiv@a+2)^0,c
  3261  00771E  0E41               	movlw	65
  3262  007720  6E08               	movwf	(___fldiv@a+3)^0,c
  3263  007722  C04E  F001         	movff	abastecimentoBomba@totalIn,___fldiv@b
  3264  007726  C04F  F002         	movff	abastecimentoBomba@totalIn+1,___fldiv@b+1
  3265  00772A  C050  F003         	movff	abastecimentoBomba@totalIn+2,___fldiv@b+2
  3266  00772E  C051  F004         	movff	abastecimentoBomba@totalIn+3,___fldiv@b+3
  3267  007732  EC77  F030         	call	___fldiv	;wreg free
  3268  007736  C001  F01A         	movff	?___fldiv,___fltol@f1
  3269  00773A  C002  F01B         	movff	?___fldiv+1,___fltol@f1+1
  3270  00773E  C003  F01C         	movff	?___fldiv+2,___fltol@f1+2
  3271  007742  C004  F01D         	movff	?___fldiv+3,___fltol@f1+3
  3272  007746  ECC2  F02A         	call	___fltol	;wreg free
  3273  00774A  C01A  F024         	movff	?___fltol,___awmod@dividend
  3274  00774E  C01B  F025         	movff	?___fltol+1,___awmod@dividend+1
  3275  007752  0E00               	movlw	0
  3276  007754  6E27               	movwf	(___awmod@divisor+1)^0,c
  3277  007756  0E0A               	movlw	10
  3278  007758  6E26               	movwf	___awmod@divisor^0,c
  3279  00775A  ECD7  F028         	call	___awmod	;wreg free
  3280  00775E  5024               	movf	?___awmod^0,w,c
  3281  007760  0F30               	addlw	48
  3282  007762  ECB5  F025         	call	_lcdChar
  3283  007766                     
  3284                           ;bombaComb.c: 123:     lcdChar((((int) (totalIn/1)) % 10) + 48);
  3285  007766  0E00               	movlw	0
  3286  007768  6E05               	movwf	___fldiv@a^0,c
  3287  00776A  0E00               	movlw	0
  3288  00776C  6E06               	movwf	(___fldiv@a+1)^0,c
  3289  00776E  0E80               	movlw	128
  3290  007770  6E07               	movwf	(___fldiv@a+2)^0,c
  3291  007772  0E3F               	movlw	63
  3292  007774  6E08               	movwf	(___fldiv@a+3)^0,c
  3293  007776  C04E  F001         	movff	abastecimentoBomba@totalIn,___fldiv@b
  3294  00777A  C04F  F002         	movff	abastecimentoBomba@totalIn+1,___fldiv@b+1
  3295  00777E  C050  F003         	movff	abastecimentoBomba@totalIn+2,___fldiv@b+2
  3296  007782  C051  F004         	movff	abastecimentoBomba@totalIn+3,___fldiv@b+3
  3297  007786  EC77  F030         	call	___fldiv	;wreg free
  3298  00778A  C001  F01A         	movff	?___fldiv,___fltol@f1
  3299  00778E  C002  F01B         	movff	?___fldiv+1,___fltol@f1+1
  3300  007792  C003  F01C         	movff	?___fldiv+2,___fltol@f1+2
  3301  007796  C004  F01D         	movff	?___fldiv+3,___fltol@f1+3
  3302  00779A  ECC2  F02A         	call	___fltol	;wreg free
  3303  00779E  C01A  F024         	movff	?___fltol,___awmod@dividend
  3304  0077A2  C01B  F025         	movff	?___fltol+1,___awmod@dividend+1
  3305  0077A6  0E00               	movlw	0
  3306  0077A8  6E27               	movwf	(___awmod@divisor+1)^0,c
  3307  0077AA  0E0A               	movlw	10
  3308  0077AC  6E26               	movwf	___awmod@divisor^0,c
  3309  0077AE  ECD7  F028         	call	___awmod	;wreg free
  3310  0077B2  5024               	movf	?___awmod^0,w,c
  3311  0077B4  0F30               	addlw	48
  3312  0077B6  ECB5  F025         	call	_lcdChar
  3313  0077BA                     
  3314                           ;bombaComb.c: 124:     lcdChar(',');
  3315  0077BA  0E2C               	movlw	44
  3316  0077BC  ECB5  F025         	call	_lcdChar
  3317  0077C0                     
  3318                           ;bombaComb.c: 125:     lcdChar((((int) (totalIn/0.1)) % 10) + 48);
  3319  0077C0  0ECD               	movlw	205
  3320  0077C2  6E05               	movwf	___fldiv@a^0,c
  3321  0077C4  0ECC               	movlw	204
  3322  0077C6  6E06               	movwf	(___fldiv@a+1)^0,c
  3323  0077C8  0ECC               	movlw	204
  3324  0077CA  6E07               	movwf	(___fldiv@a+2)^0,c
  3325  0077CC  0E3D               	movlw	61
  3326  0077CE  6E08               	movwf	(___fldiv@a+3)^0,c
  3327  0077D0  C04E  F001         	movff	abastecimentoBomba@totalIn,___fldiv@b
  3328  0077D4  C04F  F002         	movff	abastecimentoBomba@totalIn+1,___fldiv@b+1
  3329  0077D8  C050  F003         	movff	abastecimentoBomba@totalIn+2,___fldiv@b+2
  3330  0077DC  C051  F004         	movff	abastecimentoBomba@totalIn+3,___fldiv@b+3
  3331  0077E0  EC77  F030         	call	___fldiv	;wreg free
  3332  0077E4  C001  F01A         	movff	?___fldiv,___fltol@f1
  3333  0077E8  C002  F01B         	movff	?___fldiv+1,___fltol@f1+1
  3334  0077EC  C003  F01C         	movff	?___fldiv+2,___fltol@f1+2
  3335  0077F0  C004  F01D         	movff	?___fldiv+3,___fltol@f1+3
  3336  0077F4  ECC2  F02A         	call	___fltol	;wreg free
  3337  0077F8  C01A  F024         	movff	?___fltol,___awmod@dividend
  3338  0077FC  C01B  F025         	movff	?___fltol+1,___awmod@dividend+1
  3339  007800  0E00               	movlw	0
  3340  007802  6E27               	movwf	(___awmod@divisor+1)^0,c
  3341  007804  0E0A               	movlw	10
  3342  007806  6E26               	movwf	___awmod@divisor^0,c
  3343  007808  ECD7  F028         	call	___awmod	;wreg free
  3344  00780C  5024               	movf	?___awmod^0,w,c
  3345  00780E  0F30               	addlw	48
  3346  007810  ECB5  F025         	call	_lcdChar
  3347  007814                     
  3348                           ;bombaComb.c: 126:     lcdCommand(0xC0);
  3349  007814  0EC0               	movlw	192
  3350  007816  ECA6  F025         	call	_lcdCommand
  3351  00781A                     
  3352                           ;bombaComb.c: 127:     lcdString("Litros: ");
  3353  00781A  0ECF               	movlw	low STR_20
  3354  00781C  6E0F               	movwf	lcdString@msg^0,c
  3355  00781E  0E7F               	movlw	high STR_20
  3356  007820  6E10               	movwf	(lcdString@msg+1)^0,c
  3357  007822  EC38  F027         	call	_lcdString	;wreg free
  3358                           
  3359                           ;bombaComb.c: 128:     lcdChar((((int) (litrosIn/100)) % 10) + 48);
  3360  007826  0E00               	movlw	0
  3361  007828  6E05               	movwf	___fldiv@a^0,c
  3362  00782A  0E00               	movlw	0
  3363  00782C  6E06               	movwf	(___fldiv@a+1)^0,c
  3364  00782E  0EC8               	movlw	200
  3365  007830  6E07               	movwf	(___fldiv@a+2)^0,c
  3366  007832  0E42               	movlw	66
  3367  007834  6E08               	movwf	(___fldiv@a+3)^0,c
  3368  007836  C052  F001         	movff	abastecimentoBomba@litrosIn,___fldiv@b
  3369  00783A  C053  F002         	movff	abastecimentoBomba@litrosIn+1,___fldiv@b+1
  3370  00783E  C054  F003         	movff	abastecimentoBomba@litrosIn+2,___fldiv@b+2
  3371  007842  C055  F004         	movff	abastecimentoBomba@litrosIn+3,___fldiv@b+3
  3372  007846  EC77  F030         	call	___fldiv	;wreg free
  3373  00784A  C001  F01A         	movff	?___fldiv,___fltol@f1
  3374  00784E  C002  F01B         	movff	?___fldiv+1,___fltol@f1+1
  3375  007852  C003  F01C         	movff	?___fldiv+2,___fltol@f1+2
  3376  007856  C004  F01D         	movff	?___fldiv+3,___fltol@f1+3
  3377  00785A  ECC2  F02A         	call	___fltol	;wreg free
  3378  00785E  C01A  F024         	movff	?___fltol,___awmod@dividend
  3379  007862  C01B  F025         	movff	?___fltol+1,___awmod@dividend+1
  3380  007866  0E00               	movlw	0
  3381  007868  6E27               	movwf	(___awmod@divisor+1)^0,c
  3382  00786A  0E0A               	movlw	10
  3383  00786C  6E26               	movwf	___awmod@divisor^0,c
  3384  00786E  ECD7  F028         	call	___awmod	;wreg free
  3385  007872  5024               	movf	?___awmod^0,w,c
  3386  007874  0F30               	addlw	48
  3387  007876  ECB5  F025         	call	_lcdChar
  3388                           
  3389                           ;bombaComb.c: 129:     lcdChar((((int) (litrosIn/10)) % 10) + 48);
  3390  00787A  0E00               	movlw	0
  3391  00787C  6E05               	movwf	___fldiv@a^0,c
  3392  00787E  0E00               	movlw	0
  3393  007880  6E06               	movwf	(___fldiv@a+1)^0,c
  3394  007882  0E20               	movlw	32
  3395  007884  6E07               	movwf	(___fldiv@a+2)^0,c
  3396  007886  0E41               	movlw	65
  3397  007888  6E08               	movwf	(___fldiv@a+3)^0,c
  3398  00788A  C052  F001         	movff	abastecimentoBomba@litrosIn,___fldiv@b
  3399  00788E  C053  F002         	movff	abastecimentoBomba@litrosIn+1,___fldiv@b+1
  3400  007892  C054  F003         	movff	abastecimentoBomba@litrosIn+2,___fldiv@b+2
  3401  007896  C055  F004         	movff	abastecimentoBomba@litrosIn+3,___fldiv@b+3
  3402  00789A  EC77  F030         	call	___fldiv	;wreg free
  3403  00789E  C001  F01A         	movff	?___fldiv,___fltol@f1
  3404  0078A2  C002  F01B         	movff	?___fldiv+1,___fltol@f1+1
  3405  0078A6  C003  F01C         	movff	?___fldiv+2,___fltol@f1+2
  3406  0078AA  C004  F01D         	movff	?___fldiv+3,___fltol@f1+3
  3407  0078AE  ECC2  F02A         	call	___fltol	;wreg free
  3408  0078B2  C01A  F024         	movff	?___fltol,___awmod@dividend
  3409  0078B6  C01B  F025         	movff	?___fltol+1,___awmod@dividend+1
  3410  0078BA  0E00               	movlw	0
  3411  0078BC  6E27               	movwf	(___awmod@divisor+1)^0,c
  3412  0078BE  0E0A               	movlw	10
  3413  0078C0  6E26               	movwf	___awmod@divisor^0,c
  3414  0078C2  ECD7  F028         	call	___awmod	;wreg free
  3415  0078C6  5024               	movf	?___awmod^0,w,c
  3416  0078C8  0F30               	addlw	48
  3417  0078CA  ECB5  F025         	call	_lcdChar
  3418                           
  3419                           ;bombaComb.c: 130:     lcdChar((((int) (litrosIn/1)) % 10) + 48);
  3420  0078CE  0E00               	movlw	0
  3421  0078D0  6E05               	movwf	___fldiv@a^0,c
  3422  0078D2  0E00               	movlw	0
  3423  0078D4  6E06               	movwf	(___fldiv@a+1)^0,c
  3424  0078D6  0E80               	movlw	128
  3425  0078D8  6E07               	movwf	(___fldiv@a+2)^0,c
  3426  0078DA  0E3F               	movlw	63
  3427  0078DC  6E08               	movwf	(___fldiv@a+3)^0,c
  3428  0078DE  C052  F001         	movff	abastecimentoBomba@litrosIn,___fldiv@b
  3429  0078E2  C053  F002         	movff	abastecimentoBomba@litrosIn+1,___fldiv@b+1
  3430  0078E6  C054  F003         	movff	abastecimentoBomba@litrosIn+2,___fldiv@b+2
  3431  0078EA  C055  F004         	movff	abastecimentoBomba@litrosIn+3,___fldiv@b+3
  3432  0078EE  EC77  F030         	call	___fldiv	;wreg free
  3433  0078F2  C001  F01A         	movff	?___fldiv,___fltol@f1
  3434  0078F6  C002  F01B         	movff	?___fldiv+1,___fltol@f1+1
  3435  0078FA  C003  F01C         	movff	?___fldiv+2,___fltol@f1+2
  3436  0078FE  C004  F01D         	movff	?___fldiv+3,___fltol@f1+3
  3437  007902  ECC2  F02A         	call	___fltol	;wreg free
  3438  007906  C01A  F024         	movff	?___fltol,___awmod@dividend
  3439  00790A  C01B  F025         	movff	?___fltol+1,___awmod@dividend+1
  3440  00790E  0E00               	movlw	0
  3441  007910  6E27               	movwf	(___awmod@divisor+1)^0,c
  3442  007912  0E0A               	movlw	10
  3443  007914  6E26               	movwf	___awmod@divisor^0,c
  3444  007916  ECD7  F028         	call	___awmod	;wreg free
  3445  00791A  5024               	movf	?___awmod^0,w,c
  3446  00791C  0F30               	addlw	48
  3447  00791E  ECB5  F025         	call	_lcdChar
  3448                           
  3449                           ;bombaComb.c: 131:     lcdChar(',');
  3450  007922  0E2C               	movlw	44
  3451  007924  ECB5  F025         	call	_lcdChar
  3452                           
  3453                           ;bombaComb.c: 132:     lcdChar((((int) (litrosIn/0.1)) % 10) + 48);
  3454  007928  0ECD               	movlw	205
  3455  00792A  6E05               	movwf	___fldiv@a^0,c
  3456  00792C  0ECC               	movlw	204
  3457  00792E  6E06               	movwf	(___fldiv@a+1)^0,c
  3458  007930  0ECC               	movlw	204
  3459  007932  6E07               	movwf	(___fldiv@a+2)^0,c
  3460  007934  0E3D               	movlw	61
  3461  007936  6E08               	movwf	(___fldiv@a+3)^0,c
  3462  007938  C052  F001         	movff	abastecimentoBomba@litrosIn,___fldiv@b
  3463  00793C  C053  F002         	movff	abastecimentoBomba@litrosIn+1,___fldiv@b+1
  3464  007940  C054  F003         	movff	abastecimentoBomba@litrosIn+2,___fldiv@b+2
  3465  007944  C055  F004         	movff	abastecimentoBomba@litrosIn+3,___fldiv@b+3
  3466  007948  EC77  F030         	call	___fldiv	;wreg free
  3467  00794C  C001  F01A         	movff	?___fldiv,___fltol@f1
  3468  007950  C002  F01B         	movff	?___fldiv+1,___fltol@f1+1
  3469  007954  C003  F01C         	movff	?___fldiv+2,___fltol@f1+2
  3470  007958  C004  F01D         	movff	?___fldiv+3,___fltol@f1+3
  3471  00795C  ECC2  F02A         	call	___fltol	;wreg free
  3472  007960  C01A  F024         	movff	?___fltol,___awmod@dividend
  3473  007964  C01B  F025         	movff	?___fltol+1,___awmod@dividend+1
  3474  007968  0E00               	movlw	0
  3475  00796A  6E27               	movwf	(___awmod@divisor+1)^0,c
  3476  00796C  0E0A               	movlw	10
  3477  00796E  6E26               	movwf	___awmod@divisor^0,c
  3478  007970  ECD7  F028         	call	___awmod	;wreg free
  3479  007974  5024               	movf	?___awmod^0,w,c
  3480  007976  0F30               	addlw	48
  3481  007978  ECB5  F025         	call	_lcdChar
  3482  00797C                     
  3483                           ;bombaComb.c: 133:     lcdString(" L");
  3484  00797C  0EFC               	movlw	low STR_21
  3485  00797E  6E0F               	movwf	lcdString@msg^0,c
  3486  007980  0E7F               	movlw	high STR_21
  3487  007982  6E10               	movwf	(lcdString@msg+1)^0,c
  3488  007984  EC38  F027         	call	_lcdString	;wreg free
  3489  007988                     
  3490                           ;bombaComb.c: 135:     serial_tx_str("\r\nPreco a se pagar: R$ \r");
  3491  007988  0E3F               	movlw	low STR_22
  3492  00798A  6E02               	movwf	serial_tx_str@val^0,c
  3493  00798C  0E7E               	movlw	high STR_22
  3494  00798E  6E03               	movwf	(serial_tx_str@val+1)^0,c
  3495  007990  EC10  F027         	call	_serial_tx_str	;wreg free
  3496                           
  3497                           ;bombaComb.c: 136:     serial_tx((((int) (totalIn/100)) % 10) + 48);
  3498  007994  0E00               	movlw	0
  3499  007996  6E05               	movwf	___fldiv@a^0,c
  3500  007998  0E00               	movlw	0
  3501  00799A  6E06               	movwf	(___fldiv@a+1)^0,c
  3502  00799C  0EC8               	movlw	200
  3503  00799E  6E07               	movwf	(___fldiv@a+2)^0,c
  3504  0079A0  0E42               	movlw	66
  3505  0079A2  6E08               	movwf	(___fldiv@a+3)^0,c
  3506  0079A4  C04E  F001         	movff	abastecimentoBomba@totalIn,___fldiv@b
  3507  0079A8  C04F  F002         	movff	abastecimentoBomba@totalIn+1,___fldiv@b+1
  3508  0079AC  C050  F003         	movff	abastecimentoBomba@totalIn+2,___fldiv@b+2
  3509  0079B0  C051  F004         	movff	abastecimentoBomba@totalIn+3,___fldiv@b+3
  3510  0079B4  EC77  F030         	call	___fldiv	;wreg free
  3511  0079B8  C001  F01A         	movff	?___fldiv,___fltol@f1
  3512  0079BC  C002  F01B         	movff	?___fldiv+1,___fltol@f1+1
  3513  0079C0  C003  F01C         	movff	?___fldiv+2,___fltol@f1+2
  3514  0079C4  C004  F01D         	movff	?___fldiv+3,___fltol@f1+3
  3515  0079C8  ECC2  F02A         	call	___fltol	;wreg free
  3516  0079CC  C01A  F024         	movff	?___fltol,___awmod@dividend
  3517  0079D0  C01B  F025         	movff	?___fltol+1,___awmod@dividend+1
  3518  0079D4  0E00               	movlw	0
  3519  0079D6  6E27               	movwf	(___awmod@divisor+1)^0,c
  3520  0079D8  0E0A               	movlw	10
  3521  0079DA  6E26               	movwf	___awmod@divisor^0,c
  3522  0079DC  ECD7  F028         	call	___awmod	;wreg free
  3523  0079E0  5024               	movf	?___awmod^0,w,c
  3524  0079E2  0F30               	addlw	48
  3525  0079E4  EC9B  F025         	call	_serial_tx
  3526                           
  3527                           ;bombaComb.c: 137:     serial_tx((((int) (totalIn/10)) % 10) + 48);
  3528  0079E8  0E00               	movlw	0
  3529  0079EA  6E05               	movwf	___fldiv@a^0,c
  3530  0079EC  0E00               	movlw	0
  3531  0079EE  6E06               	movwf	(___fldiv@a+1)^0,c
  3532  0079F0  0E20               	movlw	32
  3533  0079F2  6E07               	movwf	(___fldiv@a+2)^0,c
  3534  0079F4  0E41               	movlw	65
  3535  0079F6  6E08               	movwf	(___fldiv@a+3)^0,c
  3536  0079F8  C04E  F001         	movff	abastecimentoBomba@totalIn,___fldiv@b
  3537  0079FC  C04F  F002         	movff	abastecimentoBomba@totalIn+1,___fldiv@b+1
  3538  007A00  C050  F003         	movff	abastecimentoBomba@totalIn+2,___fldiv@b+2
  3539  007A04  C051  F004         	movff	abastecimentoBomba@totalIn+3,___fldiv@b+3
  3540  007A08  EC77  F030         	call	___fldiv	;wreg free
  3541  007A0C  C001  F01A         	movff	?___fldiv,___fltol@f1
  3542  007A10  C002  F01B         	movff	?___fldiv+1,___fltol@f1+1
  3543  007A14  C003  F01C         	movff	?___fldiv+2,___fltol@f1+2
  3544  007A18  C004  F01D         	movff	?___fldiv+3,___fltol@f1+3
  3545  007A1C  ECC2  F02A         	call	___fltol	;wreg free
  3546  007A20  C01A  F024         	movff	?___fltol,___awmod@dividend
  3547  007A24  C01B  F025         	movff	?___fltol+1,___awmod@dividend+1
  3548  007A28  0E00               	movlw	0
  3549  007A2A  6E27               	movwf	(___awmod@divisor+1)^0,c
  3550  007A2C  0E0A               	movlw	10
  3551  007A2E  6E26               	movwf	___awmod@divisor^0,c
  3552  007A30  ECD7  F028         	call	___awmod	;wreg free
  3553  007A34  5024               	movf	?___awmod^0,w,c
  3554  007A36  0F30               	addlw	48
  3555  007A38  EC9B  F025         	call	_serial_tx
  3556                           
  3557                           ;bombaComb.c: 138:     serial_tx((((int) (totalIn/1)) % 10) + 48);
  3558  007A3C  0E00               	movlw	0
  3559  007A3E  6E05               	movwf	___fldiv@a^0,c
  3560  007A40  0E00               	movlw	0
  3561  007A42  6E06               	movwf	(___fldiv@a+1)^0,c
  3562  007A44  0E80               	movlw	128
  3563  007A46  6E07               	movwf	(___fldiv@a+2)^0,c
  3564  007A48  0E3F               	movlw	63
  3565  007A4A  6E08               	movwf	(___fldiv@a+3)^0,c
  3566  007A4C  C04E  F001         	movff	abastecimentoBomba@totalIn,___fldiv@b
  3567  007A50  C04F  F002         	movff	abastecimentoBomba@totalIn+1,___fldiv@b+1
  3568  007A54  C050  F003         	movff	abastecimentoBomba@totalIn+2,___fldiv@b+2
  3569  007A58  C051  F004         	movff	abastecimentoBomba@totalIn+3,___fldiv@b+3
  3570  007A5C  EC77  F030         	call	___fldiv	;wreg free
  3571  007A60  C001  F01A         	movff	?___fldiv,___fltol@f1
  3572  007A64  C002  F01B         	movff	?___fldiv+1,___fltol@f1+1
  3573  007A68  C003  F01C         	movff	?___fldiv+2,___fltol@f1+2
  3574  007A6C  C004  F01D         	movff	?___fldiv+3,___fltol@f1+3
  3575  007A70  ECC2  F02A         	call	___fltol	;wreg free
  3576  007A74  C01A  F024         	movff	?___fltol,___awmod@dividend
  3577  007A78  C01B  F025         	movff	?___fltol+1,___awmod@dividend+1
  3578  007A7C  0E00               	movlw	0
  3579  007A7E  6E27               	movwf	(___awmod@divisor+1)^0,c
  3580  007A80  0E0A               	movlw	10
  3581  007A82  6E26               	movwf	___awmod@divisor^0,c
  3582  007A84  ECD7  F028         	call	___awmod	;wreg free
  3583  007A88  5024               	movf	?___awmod^0,w,c
  3584  007A8A  0F30               	addlw	48
  3585  007A8C  EC9B  F025         	call	_serial_tx
  3586  007A90                     
  3587                           ;bombaComb.c: 139:     serial_tx(',');
  3588  007A90  0E2C               	movlw	44
  3589  007A92  EC9B  F025         	call	_serial_tx
  3590  007A96                     
  3591                           ;bombaComb.c: 140:     serial_tx((((int) (totalIn/0.1)) % 10) + 48);
  3592  007A96  0ECD               	movlw	205
  3593  007A98  6E05               	movwf	___fldiv@a^0,c
  3594  007A9A  0ECC               	movlw	204
  3595  007A9C  6E06               	movwf	(___fldiv@a+1)^0,c
  3596  007A9E  0ECC               	movlw	204
  3597  007AA0  6E07               	movwf	(___fldiv@a+2)^0,c
  3598  007AA2  0E3D               	movlw	61
  3599  007AA4  6E08               	movwf	(___fldiv@a+3)^0,c
  3600  007AA6  C04E  F001         	movff	abastecimentoBomba@totalIn,___fldiv@b
  3601  007AAA  C04F  F002         	movff	abastecimentoBomba@totalIn+1,___fldiv@b+1
  3602  007AAE  C050  F003         	movff	abastecimentoBomba@totalIn+2,___fldiv@b+2
  3603  007AB2  C051  F004         	movff	abastecimentoBomba@totalIn+3,___fldiv@b+3
  3604  007AB6  EC77  F030         	call	___fldiv	;wreg free
  3605  007ABA  C001  F01A         	movff	?___fldiv,___fltol@f1
  3606  007ABE  C002  F01B         	movff	?___fldiv+1,___fltol@f1+1
  3607  007AC2  C003  F01C         	movff	?___fldiv+2,___fltol@f1+2
  3608  007AC6  C004  F01D         	movff	?___fldiv+3,___fltol@f1+3
  3609  007ACA  ECC2  F02A         	call	___fltol	;wreg free
  3610  007ACE  C01A  F024         	movff	?___fltol,___awmod@dividend
  3611  007AD2  C01B  F025         	movff	?___fltol+1,___awmod@dividend+1
  3612  007AD6  0E00               	movlw	0
  3613  007AD8  6E27               	movwf	(___awmod@divisor+1)^0,c
  3614  007ADA  0E0A               	movlw	10
  3615  007ADC  6E26               	movwf	___awmod@divisor^0,c
  3616  007ADE  ECD7  F028         	call	___awmod	;wreg free
  3617  007AE2  5024               	movf	?___awmod^0,w,c
  3618  007AE4  0F30               	addlw	48
  3619  007AE6  EC9B  F025         	call	_serial_tx
  3620  007AEA                     
  3621                           ;bombaComb.c: 141:     serial_tx_str("\r\nLitros: \r");
  3622  007AEA  0EA1               	movlw	low STR_23
  3623  007AEC  6E02               	movwf	serial_tx_str@val^0,c
  3624  007AEE  0E7F               	movlw	high STR_23
  3625  007AF0  6E03               	movwf	(serial_tx_str@val+1)^0,c
  3626  007AF2  EC10  F027         	call	_serial_tx_str	;wreg free
  3627  007AF6                     
  3628                           ;bombaComb.c: 142:     serial_tx((((int) (litrosIn/100)) % 10) + 48);
  3629  007AF6  0E00               	movlw	0
  3630  007AF8  6E05               	movwf	___fldiv@a^0,c
  3631  007AFA  0E00               	movlw	0
  3632  007AFC  6E06               	movwf	(___fldiv@a+1)^0,c
  3633  007AFE  0EC8               	movlw	200
  3634  007B00  6E07               	movwf	(___fldiv@a+2)^0,c
  3635  007B02  0E42               	movlw	66
  3636  007B04  6E08               	movwf	(___fldiv@a+3)^0,c
  3637  007B06  C052  F001         	movff	abastecimentoBomba@litrosIn,___fldiv@b
  3638  007B0A  C053  F002         	movff	abastecimentoBomba@litrosIn+1,___fldiv@b+1
  3639  007B0E  C054  F003         	movff	abastecimentoBomba@litrosIn+2,___fldiv@b+2
  3640  007B12  C055  F004         	movff	abastecimentoBomba@litrosIn+3,___fldiv@b+3
  3641  007B16  EC77  F030         	call	___fldiv	;wreg free
  3642  007B1A  C001  F01A         	movff	?___fldiv,___fltol@f1
  3643  007B1E  C002  F01B         	movff	?___fldiv+1,___fltol@f1+1
  3644  007B22  C003  F01C         	movff	?___fldiv+2,___fltol@f1+2
  3645  007B26  C004  F01D         	movff	?___fldiv+3,___fltol@f1+3
  3646  007B2A  ECC2  F02A         	call	___fltol	;wreg free
  3647  007B2E  C01A  F024         	movff	?___fltol,___awmod@dividend
  3648  007B32  C01B  F025         	movff	?___fltol+1,___awmod@dividend+1
  3649  007B36  0E00               	movlw	0
  3650  007B38  6E27               	movwf	(___awmod@divisor+1)^0,c
  3651  007B3A  0E0A               	movlw	10
  3652  007B3C  6E26               	movwf	___awmod@divisor^0,c
  3653  007B3E  ECD7  F028         	call	___awmod	;wreg free
  3654  007B42  5024               	movf	?___awmod^0,w,c
  3655  007B44  0F30               	addlw	48
  3656  007B46  EC9B  F025         	call	_serial_tx
  3657  007B4A                     
  3658                           ;bombaComb.c: 143:     serial_tx((((int) (litrosIn/10)) % 10) + 48);
  3659  007B4A  0E00               	movlw	0
  3660  007B4C  6E05               	movwf	___fldiv@a^0,c
  3661  007B4E  0E00               	movlw	0
  3662  007B50  6E06               	movwf	(___fldiv@a+1)^0,c
  3663  007B52  0E20               	movlw	32
  3664  007B54  6E07               	movwf	(___fldiv@a+2)^0,c
  3665  007B56  0E41               	movlw	65
  3666  007B58  6E08               	movwf	(___fldiv@a+3)^0,c
  3667  007B5A  C052  F001         	movff	abastecimentoBomba@litrosIn,___fldiv@b
  3668  007B5E  C053  F002         	movff	abastecimentoBomba@litrosIn+1,___fldiv@b+1
  3669  007B62  C054  F003         	movff	abastecimentoBomba@litrosIn+2,___fldiv@b+2
  3670  007B66  C055  F004         	movff	abastecimentoBomba@litrosIn+3,___fldiv@b+3
  3671  007B6A  EC77  F030         	call	___fldiv	;wreg free
  3672  007B6E  C001  F01A         	movff	?___fldiv,___fltol@f1
  3673  007B72  C002  F01B         	movff	?___fldiv+1,___fltol@f1+1
  3674  007B76  C003  F01C         	movff	?___fldiv+2,___fltol@f1+2
  3675  007B7A  C004  F01D         	movff	?___fldiv+3,___fltol@f1+3
  3676  007B7E  ECC2  F02A         	call	___fltol	;wreg free
  3677  007B82  C01A  F024         	movff	?___fltol,___awmod@dividend
  3678  007B86  C01B  F025         	movff	?___fltol+1,___awmod@dividend+1
  3679  007B8A  0E00               	movlw	0
  3680  007B8C  6E27               	movwf	(___awmod@divisor+1)^0,c
  3681  007B8E  0E0A               	movlw	10
  3682  007B90  6E26               	movwf	___awmod@divisor^0,c
  3683  007B92  ECD7  F028         	call	___awmod	;wreg free
  3684  007B96  5024               	movf	?___awmod^0,w,c
  3685  007B98  0F30               	addlw	48
  3686  007B9A  EC9B  F025         	call	_serial_tx
  3687  007B9E                     
  3688                           ;bombaComb.c: 144:     serial_tx((((int) (litrosIn/1)) % 10) + 48);
  3689  007B9E  0E00               	movlw	0
  3690  007BA0  6E05               	movwf	___fldiv@a^0,c
  3691  007BA2  0E00               	movlw	0
  3692  007BA4  6E06               	movwf	(___fldiv@a+1)^0,c
  3693  007BA6  0E80               	movlw	128
  3694  007BA8  6E07               	movwf	(___fldiv@a+2)^0,c
  3695  007BAA  0E3F               	movlw	63
  3696  007BAC  6E08               	movwf	(___fldiv@a+3)^0,c
  3697  007BAE  C052  F001         	movff	abastecimentoBomba@litrosIn,___fldiv@b
  3698  007BB2  C053  F002         	movff	abastecimentoBomba@litrosIn+1,___fldiv@b+1
  3699  007BB6  C054  F003         	movff	abastecimentoBomba@litrosIn+2,___fldiv@b+2
  3700  007BBA  C055  F004         	movff	abastecimentoBomba@litrosIn+3,___fldiv@b+3
  3701  007BBE  EC77  F030         	call	___fldiv	;wreg free
  3702  007BC2  C001  F01A         	movff	?___fldiv,___fltol@f1
  3703  007BC6  C002  F01B         	movff	?___fldiv+1,___fltol@f1+1
  3704  007BCA  C003  F01C         	movff	?___fldiv+2,___fltol@f1+2
  3705  007BCE  C004  F01D         	movff	?___fldiv+3,___fltol@f1+3
  3706  007BD2  ECC2  F02A         	call	___fltol	;wreg free
  3707  007BD6  C01A  F024         	movff	?___fltol,___awmod@dividend
  3708  007BDA  C01B  F025         	movff	?___fltol+1,___awmod@dividend+1
  3709  007BDE  0E00               	movlw	0
  3710  007BE0  6E27               	movwf	(___awmod@divisor+1)^0,c
  3711  007BE2  0E0A               	movlw	10
  3712  007BE4  6E26               	movwf	___awmod@divisor^0,c
  3713  007BE6  ECD7  F028         	call	___awmod	;wreg free
  3714  007BEA  5024               	movf	?___awmod^0,w,c
  3715  007BEC  0F30               	addlw	48
  3716  007BEE  EC9B  F025         	call	_serial_tx
  3717  007BF2                     
  3718                           ;bombaComb.c: 145:     serial_tx(',');
  3719  007BF2  0E2C               	movlw	44
  3720  007BF4  EC9B  F025         	call	_serial_tx
  3721  007BF8                     
  3722                           ;bombaComb.c: 146:     serial_tx((((int) (litrosIn/0.1)) % 10) + 48);
  3723  007BF8  0ECD               	movlw	205
  3724  007BFA  6E05               	movwf	___fldiv@a^0,c
  3725  007BFC  0ECC               	movlw	204
  3726  007BFE  6E06               	movwf	(___fldiv@a+1)^0,c
  3727  007C00  0ECC               	movlw	204
  3728  007C02  6E07               	movwf	(___fldiv@a+2)^0,c
  3729  007C04  0E3D               	movlw	61
  3730  007C06  6E08               	movwf	(___fldiv@a+3)^0,c
  3731  007C08  C052  F001         	movff	abastecimentoBomba@litrosIn,___fldiv@b
  3732  007C0C  C053  F002         	movff	abastecimentoBomba@litrosIn+1,___fldiv@b+1
  3733  007C10  C054  F003         	movff	abastecimentoBomba@litrosIn+2,___fldiv@b+2
  3734  007C14  C055  F004         	movff	abastecimentoBomba@litrosIn+3,___fldiv@b+3
  3735  007C18  EC77  F030         	call	___fldiv	;wreg free
  3736  007C1C  C001  F01A         	movff	?___fldiv,___fltol@f1
  3737  007C20  C002  F01B         	movff	?___fldiv+1,___fltol@f1+1
  3738  007C24  C003  F01C         	movff	?___fldiv+2,___fltol@f1+2
  3739  007C28  C004  F01D         	movff	?___fldiv+3,___fltol@f1+3
  3740  007C2C  ECC2  F02A         	call	___fltol	;wreg free
  3741  007C30  C01A  F024         	movff	?___fltol,___awmod@dividend
  3742  007C34  C01B  F025         	movff	?___fltol+1,___awmod@dividend+1
  3743  007C38  0E00               	movlw	0
  3744  007C3A  6E27               	movwf	(___awmod@divisor+1)^0,c
  3745  007C3C  0E0A               	movlw	10
  3746  007C3E  6E26               	movwf	___awmod@divisor^0,c
  3747  007C40  ECD7  F028         	call	___awmod	;wreg free
  3748  007C44  5024               	movf	?___awmod^0,w,c
  3749  007C46  0F30               	addlw	48
  3750  007C48  EC9B  F025         	call	_serial_tx
  3751                           
  3752                           ;bombaComb.c: 147:     serial_tx_str(" L\n");
  3753  007C4C  0EF8               	movlw	low STR_24
  3754  007C4E  6E02               	movwf	serial_tx_str@val^0,c
  3755  007C50  0E7F               	movlw	high STR_24
  3756  007C52  6E03               	movwf	(serial_tx_str@val+1)^0,c
  3757  007C54  EC10  F027         	call	_serial_tx_str	;wreg free
  3758  007C58                     
  3759                           ;bombaComb.c: 151:     tempo = 0;
  3760  007C58  0E00               	movlw	0
  3761  007C5A  6E58               	movwf	(abastecimentoBomba@tempo+1)^0,c
  3762  007C5C  0E00               	movlw	0
  3763  007C5E  6E57               	movwf	abastecimentoBomba@tempo^0,c
  3764                           
  3765                           ;bombaComb.c: 152:     while(tempo != 1500){
  3766  007C60  EF4A  F03E         	goto	l3436
  3767  007C64                     l3424:
  3768                           
  3769                           ;bombaComb.c: 153:         timerReset(5000);
  3770  007C64  0E13               	movlw	19
  3771  007C66  6E02               	movwf	(timerReset@tempo+1)^0,c
  3772  007C68  0E88               	movlw	136
  3773  007C6A  6E01               	movwf	timerReset@tempo^0,c
  3774  007C6C  ECC4  F025         	call	_timerReset	;wreg free
  3775  007C70                     
  3776                           ;bombaComb.c: 156:         ssdUpdate();
  3777  007C70  EC99  F02C         	call	_ssdUpdate	;wreg free
  3778  007C74                     
  3779                           ;bombaComb.c: 158:         if(timerEnded()){
  3780  007C74  EC82  F025         	call	_timerEnded	;wreg free
  3781  007C78  0900               	iorlw	0
  3782  007C7A  B4D8               	btfsc	status,2,c
  3783  007C7C  EF42  F03E         	goto	u3851
  3784  007C80  EF44  F03E         	goto	u3850
  3785  007C84                     u3851:
  3786  007C84  EF46  F03E         	goto	l3432
  3787  007C88                     u3850:
  3788  007C88  EF56  F03E         	goto	l3438
  3789  007C8C                     l3432:
  3790                           
  3791                           ;bombaComb.c: 163:         timerWait();
  3792  007C8C  EC89  F025         	call	_timerWait	;wreg free
  3793  007C90                     
  3794                           ;bombaComb.c: 165:         tempo++;
  3795  007C90  4A57               	infsnz	abastecimentoBomba@tempo^0,f,c
  3796  007C92  2A58               	incf	(abastecimentoBomba@tempo+1)^0,f,c
  3797  007C94                     l3436:
  3798                           
  3799                           ;bombaComb.c: 152:     while(tempo != 1500){
  3800  007C94  0EDC               	movlw	220
  3801  007C96  1857               	xorwf	abastecimentoBomba@tempo^0,w,c
  3802  007C98  E107               	bnz	u3861
  3803  007C9A  0E05               	movlw	5
  3804  007C9C  1858               	xorwf	(abastecimentoBomba@tempo+1)^0,w,c
  3805  007C9E  A4D8               	btfss	status,2,c
  3806  007CA0  EF54  F03E         	goto	u3861
  3807  007CA4  EF56  F03E         	goto	u3860
  3808  007CA8                     u3861:
  3809  007CA8  EF32  F03E         	goto	l3424
  3810  007CAC                     u3860:
  3811  007CAC                     l3438:
  3812                           
  3813                           ;bombaComb.c: 169:     digitalWrite(PIN_D0, 0);
  3814  007CAC  0E00               	movlw	0
  3815  007CAE  6E02               	movwf	(digitalWrite@pin+1)^0,c
  3816  007CB0  0E18               	movlw	24
  3817  007CB2  6E01               	movwf	digitalWrite@pin^0,c
  3818  007CB4  0E00               	movlw	0
  3819  007CB6  6E04               	movwf	(digitalWrite@value+1)^0,c
  3820  007CB8  0E00               	movlw	0
  3821  007CBA  6E03               	movwf	digitalWrite@value^0,c
  3822  007CBC  EC50  F02F         	call	_digitalWrite	;wreg free
  3823                           
  3824                           ;bombaComb.c: 170:     digitalWrite(PIN_D1, 0);
  3825  007CC0  0E00               	movlw	0
  3826  007CC2  6E02               	movwf	(digitalWrite@pin+1)^0,c
  3827  007CC4  0E19               	movlw	25
  3828  007CC6  6E01               	movwf	digitalWrite@pin^0,c
  3829  007CC8  0E00               	movlw	0
  3830  007CCA  6E04               	movwf	(digitalWrite@value+1)^0,c
  3831  007CCC  0E00               	movlw	0
  3832  007CCE  6E03               	movwf	digitalWrite@value^0,c
  3833  007CD0  EC50  F02F         	call	_digitalWrite	;wreg free
  3834                           
  3835                           ;bombaComb.c: 171:     digitalWrite(PIN_D2, 0);
  3836  007CD4  0E00               	movlw	0
  3837  007CD6  6E02               	movwf	(digitalWrite@pin+1)^0,c
  3838  007CD8  0E1A               	movlw	26
  3839  007CDA  6E01               	movwf	digitalWrite@pin^0,c
  3840  007CDC  0E00               	movlw	0
  3841  007CDE  6E04               	movwf	(digitalWrite@value+1)^0,c
  3842  007CE0  0E00               	movlw	0
  3843  007CE2  6E03               	movwf	digitalWrite@value^0,c
  3844  007CE4  EC50  F02F         	call	_digitalWrite	;wreg free
  3845                           
  3846                           ;bombaComb.c: 172:     digitalWrite(PIN_D3, 0);
  3847  007CE8  0E00               	movlw	0
  3848  007CEA  6E02               	movwf	(digitalWrite@pin+1)^0,c
  3849  007CEC  0E1B               	movlw	27
  3850  007CEE  6E01               	movwf	digitalWrite@pin^0,c
  3851  007CF0  0E00               	movlw	0
  3852  007CF2  6E04               	movwf	(digitalWrite@value+1)^0,c
  3853  007CF4  0E00               	movlw	0
  3854  007CF6  6E03               	movwf	digitalWrite@value^0,c
  3855  007CF8  EC50  F02F         	call	_digitalWrite	;wreg free
  3856                           
  3857                           ;bombaComb.c: 175:     lcdCommand(0x01);
  3858  007CFC  0E01               	movlw	1
  3859  007CFE  ECA6  F025         	call	_lcdCommand
  3860                           
  3861                           ;bombaComb.c: 176:     lcdCommand(0x80);
  3862  007D02  0E80               	movlw	128
  3863  007D04  ECA6  F025         	call	_lcdCommand
  3864  007D08                     
  3865                           ;bombaComb.c: 177:     lcdString("Obrigado pela");
  3866  007D08  0E6C               	movlw	low STR_25
  3867  007D0A  6E0F               	movwf	lcdString@msg^0,c
  3868  007D0C  0E7F               	movlw	high STR_25
  3869  007D0E  6E10               	movwf	(lcdString@msg+1)^0,c
  3870  007D10  EC38  F027         	call	_lcdString	;wreg free
  3871  007D14                     
  3872                           ;bombaComb.c: 178:     lcdCommand(0xC0);
  3873  007D14  0EC0               	movlw	192
  3874  007D16  ECA6  F025         	call	_lcdCommand
  3875                           
  3876                           ;bombaComb.c: 179:     lcdString("preferencia!");
  3877  007D1A  0E87               	movlw	low STR_26
  3878  007D1C  6E0F               	movwf	lcdString@msg^0,c
  3879  007D1E  0E7F               	movlw	high STR_26
  3880  007D20  6E10               	movwf	(lcdString@msg+1)^0,c
  3881  007D22  EC38  F027         	call	_lcdString	;wreg free
  3882                           
  3883                           ;bombaComb.c: 180:     serial_tx_str("\r\nObrigado pela preferencia!\n\r");
  3884  007D26  0EE8               	movlw	low STR_27
  3885  007D28  6E02               	movwf	serial_tx_str@val^0,c
  3886  007D2A  0E7D               	movlw	high STR_27
  3887  007D2C  6E03               	movwf	(serial_tx_str@val+1)^0,c
  3888  007D2E  EC10  F027         	call	_serial_tx_str	;wreg free
  3889  007D32                     
  3890                           ;bombaComb.c: 183:     atraso_ms(4000);
  3891  007D32  0E0F               	movlw	15
  3892  007D34  6E02               	movwf	(atraso_ms@num+1)^0,c
  3893  007D36  0EA0               	movlw	160
  3894  007D38  6E01               	movwf	atraso_ms@num^0,c
  3895  007D3A  ECE7  F027         	call	_atraso_ms	;wreg free
  3896  007D3E  0012               	return		;funcret
  3897  007D40                     __end_of_abastecimentoBomba:
  3898                           	callstack 0
  3899                           
  3900 ;; *************** function _timerWait *****************
  3901 ;; Defined at:
  3902 ;;		line 31 in file "timer.c"
  3903 ;; Parameters:    Size  Location     Type
  3904 ;;		None
  3905 ;; Auto vars:     Size  Location     Type
  3906 ;;		None
  3907 ;; Return value:  Size  Location     Type
  3908 ;;                  1    wreg      void 
  3909 ;; Registers used:
  3910 ;;		None
  3911 ;; Tracked objects:
  3912 ;;		On entry : 0/0
  3913 ;;		On exit  : 0/0
  3914 ;;		Unchanged: 0/0
  3915 ;; Data sizes:     COMRAM   BANK0   BANK1   BANK2   BANK3   BANK4   BANK5
  3916 ;;      Params:         0       0       0       0       0       0       0
  3917 ;;      Locals:         0       0       0       0       0       0       0
  3918 ;;      Temps:          0       0       0       0       0       0       0
  3919 ;;      Totals:         0       0       0       0       0       0       0
  3920 ;;Total ram usage:        0 bytes
  3921 ;; Hardware stack levels used: 1
  3922 ;; This function calls:
  3923 ;;		Nothing
  3924 ;; This function is called by:
  3925 ;;		_abastecimentoBomba
  3926 ;; This function uses a non-reentrant model
  3927 ;;
  3928                           
  3929                           	psect	text9
  3930  004B12                     __ptext9:
  3931                           	callstack 0
  3932  004B12                     _timerWait:
  3933                           	callstack 28
  3934  004B12                     l314:
  3935  004B12  A4F2               	btfss	242,2,c	;volatile
  3936  004B14  EF8E  F025         	goto	u771
  3937  004B18  EF90  F025         	goto	u770
  3938  004B1C                     u771:
  3939  004B1C  EF89  F025         	goto	l314
  3940  004B20                     u770:
  3941  004B20  0012               	return		;funcret
  3942  004B22                     __end_of_timerWait:
  3943                           	callstack 0
  3944                           
  3945 ;; *************** function _timerReset *****************
  3946 ;; Defined at:
  3947 ;;		line 37 in file "timer.c"
  3948 ;; Parameters:    Size  Location     Type
  3949 ;;  tempo           2    0[COMRAM] unsigned int 
  3950 ;; Auto vars:     Size  Location     Type
  3951 ;;  ciclos          2    2[COMRAM] unsigned int 
  3952 ;; Return value:  Size  Location     Type
  3953 ;;                  1    wreg      void 
  3954 ;; Registers used:
  3955 ;;		wreg, status,2, status,0
  3956 ;; Tracked objects:
  3957 ;;		On entry : 0/0
  3958 ;;		On exit  : 0/0
  3959 ;;		Unchanged: 0/0
  3960 ;; Data sizes:     COMRAM   BANK0   BANK1   BANK2   BANK3   BANK4   BANK5
  3961 ;;      Params:         2       0       0       0       0       0       0
  3962 ;;      Locals:         2       0       0       0       0       0       0
  3963 ;;      Temps:          0       0       0       0       0       0       0
  3964 ;;      Totals:         4       0       0       0       0       0       0
  3965 ;;Total ram usage:        4 bytes
  3966 ;; Hardware stack levels used: 1
  3967 ;; This function calls:
  3968 ;;		Nothing
  3969 ;; This function is called by:
  3970 ;;		_abastecimentoBomba
  3971 ;; This function uses a non-reentrant model
  3972 ;;
  3973                           
  3974                           	psect	text10
  3975  004B88                     __ptext10:
  3976                           	callstack 0
  3977  004B88                     _timerReset:
  3978                           	callstack 28
  3979  004B88                     
  3980                           ;timer.c: 37: void timerReset(unsigned int tempo);timer.c: 38: {;timer.c: 39:     unsign
      +                          ed int ciclos;;timer.c: 42:     ciclos = tempo * 2;
  3981  004B88  90D8               	bcf	status,0,c
  3982  004B8A  3401               	rlcf	timerReset@tempo^0,w,c
  3983  004B8C  6E03               	movwf	timerReset@ciclos^0,c
  3984  004B8E  3402               	rlcf	(timerReset@tempo+1)^0,w,c
  3985  004B90  6E04               	movwf	(timerReset@ciclos+1)^0,c
  3986  004B92                     
  3987                           ;timer.c: 44:  ciclos = 65535 - ciclos;
  3988  004B92  1E03               	comf	timerReset@ciclos^0,f,c
  3989  004B94  1E04               	comf	(timerReset@ciclos+1)^0,f,c
  3990  004B96                     
  3991                           ;timer.c: 47:     ciclos -=50;
  3992  004B96  0E32               	movlw	50
  3993  004B98  5E03               	subwf	timerReset@ciclos^0,f,c
  3994  004B9A  0E00               	movlw	0
  3995  004B9C  5A04               	subwfb	(timerReset@ciclos+1)^0,f,c
  3996  004B9E                     
  3997                           ;timer.c: 49:  TMR0H = (ciclos >> 8);
  3998  004B9E  5004               	movf	(timerReset@ciclos+1)^0,w,c
  3999  004BA0  6ED7               	movwf	215,c	;volatile
  4000  004BA2                     
  4001                           ;timer.c: 50:  TMR0L = (ciclos & 0x00FF);
  4002  004BA2  C003  FFD6         	movff	timerReset@ciclos,4054	;volatile
  4003  004BA6                     
  4004                           ;timer.c: 52:  ((INTCON) &= ~(1<<(2)));
  4005  004BA6  94F2               	bcf	242,2,c	;volatile
  4006  004BA8  0012               	return		;funcret
  4007  004BAA                     __end_of_timerReset:
  4008                           	callstack 0
  4009                           
  4010 ;; *************** function _timerEnded *****************
  4011 ;; Defined at:
  4012 ;;		line 26 in file "timer.c"
  4013 ;; Parameters:    Size  Location     Type
  4014 ;;		None
  4015 ;; Auto vars:     Size  Location     Type
  4016 ;;		None
  4017 ;; Return value:  Size  Location     Type
  4018 ;;                  1    wreg      unsigned char 
  4019 ;; Registers used:
  4020 ;;		wreg, status,2, status,0
  4021 ;; Tracked objects:
  4022 ;;		On entry : 0/0
  4023 ;;		On exit  : 0/0
  4024 ;;		Unchanged: 0/0
  4025 ;; Data sizes:     COMRAM   BANK0   BANK1   BANK2   BANK3   BANK4   BANK5
  4026 ;;      Params:         0       0       0       0       0       0       0
  4027 ;;      Locals:         0       0       0       0       0       0       0
  4028 ;;      Temps:          0       0       0       0       0       0       0
  4029 ;;      Totals:         0       0       0       0       0       0       0
  4030 ;;Total ram usage:        0 bytes
  4031 ;; Hardware stack levels used: 1
  4032 ;; This function calls:
  4033 ;;		Nothing
  4034 ;; This function is called by:
  4035 ;;		_abastecimentoBomba
  4036 ;; This function uses a non-reentrant model
  4037 ;;
  4038                           
  4039                           	psect	text11
  4040  004B04                     __ptext11:
  4041                           	callstack 0
  4042  004B04                     _timerEnded:
  4043                           	callstack 28
  4044  004B04                     
  4045                           ;timer.c: 28:  return ((INTCON) & (1<<(2)));
  4046  004B04  50F2               	movf	242,w,c	;volatile
  4047  004B06  0B04               	andlw	4
  4048  004B08  0012               	return		;funcret
  4049  004B0A                     __end_of_timerEnded:
  4050                           	callstack 0
  4051                           
  4052 ;; *************** function _ssdUpdate *****************
  4053 ;; Defined at:
  4054 ;;		line 50 in file "ssd.c"
  4055 ;; Parameters:    Size  Location     Type
  4056 ;;		None
  4057 ;; Auto vars:     Size  Location     Type
  4058 ;;		None
  4059 ;; Return value:  Size  Location     Type
  4060 ;;                  1    wreg      void 
  4061 ;; Registers used:
  4062 ;;		wreg, status,2, status,0, tblptrl, tblptrh, tblptru, cstack
  4063 ;; Tracked objects:
  4064 ;;		On entry : 0/0
  4065 ;;		On exit  : 0/0
  4066 ;;		Unchanged: 0/0
  4067 ;; Data sizes:     COMRAM   BANK0   BANK1   BANK2   BANK3   BANK4   BANK5
  4068 ;;      Params:         0       0       0       0       0       0       0
  4069 ;;      Locals:         0       0       0       0       0       0       0
  4070 ;;      Temps:          2       0       0       0       0       0       0
  4071 ;;      Totals:         2       0       0       0       0       0       0
  4072 ;;Total ram usage:        2 bytes
  4073 ;; Hardware stack levels used: 1
  4074 ;; Hardware stack levels required when called: 3
  4075 ;; This function calls:
  4076 ;;		_digitalWrite
  4077 ;;		_soWrite
  4078 ;; This function is called by:
  4079 ;;		_abastecimentoBomba
  4080 ;; This function uses a non-reentrant model
  4081 ;;
  4082                           
  4083                           	psect	text12
  4084  005932                     __ptext12:
  4085                           	callstack 0
  4086  005932                     _ssdUpdate:
  4087                           	callstack 25
  4088  005932                     
  4089                           ;ssd.c: 54:     digitalWrite(PIN_D0,0);
  4090  005932  0E00               	movlw	0
  4091  005934  6E02               	movwf	(digitalWrite@pin+1)^0,c
  4092  005936  0E18               	movlw	24
  4093  005938  6E01               	movwf	digitalWrite@pin^0,c
  4094  00593A  0E00               	movlw	0
  4095  00593C  6E04               	movwf	(digitalWrite@value+1)^0,c
  4096  00593E  0E00               	movlw	0
  4097  005940  6E03               	movwf	digitalWrite@value^0,c
  4098  005942  EC50  F02F         	call	_digitalWrite	;wreg free
  4099                           
  4100                           ;ssd.c: 55:     digitalWrite(PIN_D1,0);
  4101  005946  0E00               	movlw	0
  4102  005948  6E02               	movwf	(digitalWrite@pin+1)^0,c
  4103  00594A  0E19               	movlw	25
  4104  00594C  6E01               	movwf	digitalWrite@pin^0,c
  4105  00594E  0E00               	movlw	0
  4106  005950  6E04               	movwf	(digitalWrite@value+1)^0,c
  4107  005952  0E00               	movlw	0
  4108  005954  6E03               	movwf	digitalWrite@value^0,c
  4109  005956  EC50  F02F         	call	_digitalWrite	;wreg free
  4110                           
  4111                           ;ssd.c: 56:     digitalWrite(PIN_D2,0);
  4112  00595A  0E00               	movlw	0
  4113  00595C  6E02               	movwf	(digitalWrite@pin+1)^0,c
  4114  00595E  0E1A               	movlw	26
  4115  005960  6E01               	movwf	digitalWrite@pin^0,c
  4116  005962  0E00               	movlw	0
  4117  005964  6E04               	movwf	(digitalWrite@value+1)^0,c
  4118  005966  0E00               	movlw	0
  4119  005968  6E03               	movwf	digitalWrite@value^0,c
  4120  00596A  EC50  F02F         	call	_digitalWrite	;wreg free
  4121                           
  4122                           ;ssd.c: 57:     digitalWrite(PIN_D3,0);
  4123  00596E  0E00               	movlw	0
  4124  005970  6E02               	movwf	(digitalWrite@pin+1)^0,c
  4125  005972  0E1B               	movlw	27
  4126  005974  6E01               	movwf	digitalWrite@pin^0,c
  4127  005976  0E00               	movlw	0
  4128  005978  6E04               	movwf	(digitalWrite@value+1)^0,c
  4129  00597A  0E00               	movlw	0
  4130  00597C  6E03               	movwf	digitalWrite@value^0,c
  4131  00597E  EC50  F02F         	call	_digitalWrite	;wreg free
  4132                           
  4133                           ;ssd.c: 60:     soWrite(0x00);
  4134  005982  0E00               	movlw	0
  4135  005984  6E08               	movwf	(soWrite@value+1)^0,c
  4136  005986  0E00               	movlw	0
  4137  005988  6E07               	movwf	soWrite@value^0,c
  4138  00598A  ECE9  F026         	call	_soWrite	;wreg free
  4139                           
  4140                           ;ssd.c: 62:     switch (display)
  4141  00598E  EF31  F02D         	goto	l2836
  4142  005992                     l2808:
  4143                           
  4144                           ;ssd.c: 65:             soWrite(valor[v0]);
  4145  005992  0E41               	movlw	low _valor
  4146  005994  247C               	addwf	_v0^0,w,c
  4147  005996  6EF6               	movwf	tblptrl,c
  4148  005998  6AF7               	clrf	tblptrh,c
  4149  00599A  0E7D               	movlw	high _valor
  4150  00599C  22F7               	addwfc	tblptrh,f,c
  4151  00599E                     	if	0	;There are less than 3 active tblptr bytes
  4152  00599E                     	endif
  4153  00599E  0008               	tblrd		*
  4154  0059A0  50F5               	movf	tablat,w,c
  4155  0059A2  6E07               	movwf	soWrite@value^0,c
  4156  0059A4  6A08               	clrf	(soWrite@value+1)^0,c
  4157  0059A6  ECE9  F026         	call	_soWrite	;wreg free
  4158  0059AA                     
  4159                           ;ssd.c: 66:             digitalWrite(PIN_D0,1);
  4160  0059AA  0E00               	movlw	0
  4161  0059AC  6E02               	movwf	(digitalWrite@pin+1)^0,c
  4162  0059AE  0E18               	movlw	24
  4163  0059B0  6E01               	movwf	digitalWrite@pin^0,c
  4164  0059B2  0E00               	movlw	0
  4165  0059B4  6E04               	movwf	(digitalWrite@value+1)^0,c
  4166  0059B6  0E01               	movlw	1
  4167  0059B8  6E03               	movwf	digitalWrite@value^0,c
  4168  0059BA  EC50  F02F         	call	_digitalWrite	;wreg free
  4169  0059BE                     
  4170                           ;ssd.c: 67:             display = 1;
  4171  0059BE  0E01               	movlw	1
  4172  0059C0  6E7D               	movwf	_display^0,c
  4173                           
  4174                           ;ssd.c: 68:             break;
  4175  0059C2  EF4E  F02D         	goto	l297
  4176  0059C6                     l2814:
  4177                           
  4178                           ;ssd.c: 71:             soWrite(valor[v1]);
  4179  0059C6  0E41               	movlw	low _valor
  4180  0059C8  247B               	addwf	_v1^0,w,c
  4181  0059CA  6EF6               	movwf	tblptrl,c
  4182  0059CC  6AF7               	clrf	tblptrh,c
  4183  0059CE  0E7D               	movlw	high _valor
  4184  0059D0  22F7               	addwfc	tblptrh,f,c
  4185  0059D2                     	if	0	;There are less than 3 active tblptr bytes
  4186  0059D2                     	endif
  4187  0059D2  0008               	tblrd		*
  4188  0059D4  50F5               	movf	tablat,w,c
  4189  0059D6  6E07               	movwf	soWrite@value^0,c
  4190  0059D8  6A08               	clrf	(soWrite@value+1)^0,c
  4191  0059DA  ECE9  F026         	call	_soWrite	;wreg free
  4192  0059DE                     
  4193                           ;ssd.c: 72:             digitalWrite(PIN_D1,1);
  4194  0059DE  0E00               	movlw	0
  4195  0059E0  6E02               	movwf	(digitalWrite@pin+1)^0,c
  4196  0059E2  0E19               	movlw	25
  4197  0059E4  6E01               	movwf	digitalWrite@pin^0,c
  4198  0059E6  0E00               	movlw	0
  4199  0059E8  6E04               	movwf	(digitalWrite@value+1)^0,c
  4200  0059EA  0E01               	movlw	1
  4201  0059EC  6E03               	movwf	digitalWrite@value^0,c
  4202  0059EE  EC50  F02F         	call	_digitalWrite	;wreg free
  4203  0059F2                     
  4204                           ;ssd.c: 73:             display = 2;
  4205  0059F2  0E02               	movlw	2
  4206  0059F4  6E7D               	movwf	_display^0,c
  4207                           
  4208                           ;ssd.c: 74:             break;
  4209  0059F6  EF4E  F02D         	goto	l297
  4210  0059FA                     l2820:
  4211                           
  4212                           ;ssd.c: 77:             soWrite(valor[v2]);
  4213  0059FA  0E41               	movlw	low _valor
  4214  0059FC  247A               	addwf	_v2^0,w,c
  4215  0059FE  6EF6               	movwf	tblptrl,c
  4216  005A00  6AF7               	clrf	tblptrh,c
  4217  005A02  0E7D               	movlw	high _valor
  4218  005A04  22F7               	addwfc	tblptrh,f,c
  4219  005A06                     	if	0	;There are less than 3 active tblptr bytes
  4220  005A06                     	endif
  4221  005A06  0008               	tblrd		*
  4222  005A08  50F5               	movf	tablat,w,c
  4223  005A0A  6E07               	movwf	soWrite@value^0,c
  4224  005A0C  6A08               	clrf	(soWrite@value+1)^0,c
  4225  005A0E  ECE9  F026         	call	_soWrite	;wreg free
  4226  005A12                     
  4227                           ;ssd.c: 78:             digitalWrite(PIN_D2,1);
  4228  005A12  0E00               	movlw	0
  4229  005A14  6E02               	movwf	(digitalWrite@pin+1)^0,c
  4230  005A16  0E1A               	movlw	26
  4231  005A18  6E01               	movwf	digitalWrite@pin^0,c
  4232  005A1A  0E00               	movlw	0
  4233  005A1C  6E04               	movwf	(digitalWrite@value+1)^0,c
  4234  005A1E  0E01               	movlw	1
  4235  005A20  6E03               	movwf	digitalWrite@value^0,c
  4236  005A22  EC50  F02F         	call	_digitalWrite	;wreg free
  4237  005A26                     
  4238                           ;ssd.c: 79:             display = 3;
  4239  005A26  0E03               	movlw	3
  4240  005A28  6E7D               	movwf	_display^0,c
  4241                           
  4242                           ;ssd.c: 80:             break;
  4243  005A2A  EF4E  F02D         	goto	l297
  4244  005A2E                     l2826:
  4245                           
  4246                           ;ssd.c: 83:             soWrite(valor[v3]);
  4247  005A2E  0E41               	movlw	low _valor
  4248  005A30  2479               	addwf	_v3^0,w,c
  4249  005A32  6EF6               	movwf	tblptrl,c
  4250  005A34  6AF7               	clrf	tblptrh,c
  4251  005A36  0E7D               	movlw	high _valor
  4252  005A38  22F7               	addwfc	tblptrh,f,c
  4253  005A3A                     	if	0	;There are less than 3 active tblptr bytes
  4254  005A3A                     	endif
  4255  005A3A  0008               	tblrd		*
  4256  005A3C  50F5               	movf	tablat,w,c
  4257  005A3E  6E07               	movwf	soWrite@value^0,c
  4258  005A40  6A08               	clrf	(soWrite@value+1)^0,c
  4259  005A42  ECE9  F026         	call	_soWrite	;wreg free
  4260  005A46                     
  4261                           ;ssd.c: 84:             digitalWrite(PIN_D3,1);
  4262  005A46  0E00               	movlw	0
  4263  005A48  6E02               	movwf	(digitalWrite@pin+1)^0,c
  4264  005A4A  0E1B               	movlw	27
  4265  005A4C  6E01               	movwf	digitalWrite@pin^0,c
  4266  005A4E  0E00               	movlw	0
  4267  005A50  6E04               	movwf	(digitalWrite@value+1)^0,c
  4268  005A52  0E01               	movlw	1
  4269  005A54  6E03               	movwf	digitalWrite@value^0,c
  4270  005A56  EC50  F02F         	call	_digitalWrite	;wreg free
  4271  005A5A                     l2830:
  4272                           
  4273                           ;ssd.c: 85:             display = 0;
  4274  005A5A  0E00               	movlw	0
  4275  005A5C  6E7D               	movwf	_display^0,c
  4276                           
  4277                           ;ssd.c: 86:             break;
  4278  005A5E  EF4E  F02D         	goto	l297
  4279  005A62                     l2836:
  4280  005A62  507D               	movf	_display^0,w,c
  4281  005A64  6E0A               	movwf	??_ssdUpdate^0,c
  4282  005A66  6A0B               	clrf	(??_ssdUpdate+1)^0,c
  4283                           
  4284                           ; Switch on 2 bytes has been partitioned into a top level switch of size 1, and 1 sub-sw
      +                          itches
  4285                           ; Switch size 1, requested type "simple"
  4286                           ; Number of cases is 1, Range of values is 0 to 0
  4287                           ; switch strategies available:
  4288                           ; Name         Instructions Cycles
  4289                           ; simple_byte            4     3 (average)
  4290                           ;	Chosen strategy is simple_byte
  4291  005A68  500B               	movf	(??_ssdUpdate+1)^0,w,c
  4292  005A6A  0A00               	xorlw	0	; case 0
  4293  005A6C  B4D8               	btfsc	status,2,c
  4294  005A6E  EF3B  F02D         	goto	l3936
  4295  005A72  EF2D  F02D         	goto	l2830
  4296  005A76                     l3936:
  4297                           
  4298                           ; Switch size 1, requested type "simple"
  4299                           ; Number of cases is 4, Range of values is 0 to 3
  4300                           ; switch strategies available:
  4301                           ; Name         Instructions Cycles
  4302                           ; simple_byte           13     7 (average)
  4303                           ;	Chosen strategy is simple_byte
  4304  005A76  500A               	movf	??_ssdUpdate^0,w,c
  4305  005A78  0A00               	xorlw	0	; case 0
  4306  005A7A  B4D8               	btfsc	status,2,c
  4307  005A7C  EFC9  F02C         	goto	l2808
  4308  005A80  0A01               	xorlw	1	; case 1
  4309  005A82  B4D8               	btfsc	status,2,c
  4310  005A84  EFE3  F02C         	goto	l2814
  4311  005A88  0A03               	xorlw	3	; case 2
  4312  005A8A  B4D8               	btfsc	status,2,c
  4313  005A8C  EFFD  F02C         	goto	l2820
  4314  005A90  0A01               	xorlw	1	; case 3
  4315  005A92  B4D8               	btfsc	status,2,c
  4316  005A94  EF17  F02D         	goto	l2826
  4317  005A98  EF2D  F02D         	goto	l2830
  4318  005A9C                     l297:
  4319  005A9C  0012               	return		;funcret
  4320  005A9E                     __end_of_ssdUpdate:
  4321                           	callstack 0
  4322                           
  4323 ;; *************** function _ssdDigit *****************
  4324 ;; Defined at:
  4325 ;;		line 34 in file "ssd.c"
  4326 ;; Parameters:    Size  Location     Type
  4327 ;;  val             1    wreg     unsigned char 
  4328 ;;  pos             1   41[COMRAM] unsigned char 
  4329 ;; Auto vars:     Size  Location     Type
  4330 ;;  val             1   42[COMRAM] unsigned char 
  4331 ;; Return value:  Size  Location     Type
  4332 ;;                  1    wreg      void 
  4333 ;; Registers used:
  4334 ;;		wreg, status,2, status,0
  4335 ;; Tracked objects:
  4336 ;;		On entry : 0/0
  4337 ;;		On exit  : 0/0
  4338 ;;		Unchanged: 0/0
  4339 ;; Data sizes:     COMRAM   BANK0   BANK1   BANK2   BANK3   BANK4   BANK5
  4340 ;;      Params:         1       0       0       0       0       0       0
  4341 ;;      Locals:         1       0       0       0       0       0       0
  4342 ;;      Temps:          0       0       0       0       0       0       0
  4343 ;;      Totals:         2       0       0       0       0       0       0
  4344 ;;Total ram usage:        2 bytes
  4345 ;; Hardware stack levels used: 1
  4346 ;; This function calls:
  4347 ;;		Nothing
  4348 ;; This function is called by:
  4349 ;;		_abastecimentoBomba
  4350 ;; This function uses a non-reentrant model
  4351 ;;
  4352                           
  4353                           	psect	text13
  4354  004F1C                     __ptext13:
  4355                           	callstack 0
  4356  004F1C                     _ssdDigit:
  4357                           	callstack 28
  4358                           
  4359                           ;incstack = 0
  4360                           ;ssdDigit@val stored from wreg
  4361  004F1C  6E2B               	movwf	ssdDigit@val^0,c
  4362  004F1E                     
  4363                           ;ssd.c: 35:     if (pos == 0) {
  4364  004F1E  502A               	movf	ssdDigit@pos^0,w,c
  4365  004F20  A4D8               	btfss	status,2,c
  4366  004F22  EF95  F027         	goto	u2911
  4367  004F26  EF97  F027         	goto	u2910
  4368  004F2A                     u2911:
  4369  004F2A  EF99  F027         	goto	l2794
  4370  004F2E                     u2910:
  4371  004F2E                     
  4372                           ;ssd.c: 36:         v0 = val;
  4373  004F2E  C02B  F07C         	movff	ssdDigit@val,_v0
  4374  004F32                     l2794:
  4375                           
  4376                           ;ssd.c: 38:     if (pos == 1) {
  4377  004F32  042A               	decf	ssdDigit@pos^0,w,c
  4378  004F34  A4D8               	btfss	status,2,c
  4379  004F36  EF9F  F027         	goto	u2921
  4380  004F3A  EFA1  F027         	goto	u2920
  4381  004F3E                     u2921:
  4382  004F3E  EFA3  F027         	goto	l2798
  4383  004F42                     u2920:
  4384  004F42                     
  4385                           ;ssd.c: 39:         v1 = val;
  4386  004F42  C02B  F07B         	movff	ssdDigit@val,_v1
  4387  004F46                     l2798:
  4388                           
  4389                           ;ssd.c: 41:     if (pos == 2) {
  4390  004F46  0E02               	movlw	2
  4391  004F48  182A               	xorwf	ssdDigit@pos^0,w,c
  4392  004F4A  A4D8               	btfss	status,2,c
  4393  004F4C  EFAA  F027         	goto	u2931
  4394  004F50  EFAC  F027         	goto	u2930
  4395  004F54                     u2931:
  4396  004F54  EFAE  F027         	goto	l2802
  4397  004F58                     u2930:
  4398  004F58                     
  4399                           ;ssd.c: 42:         v2 = val;
  4400  004F58  C02B  F07A         	movff	ssdDigit@val,_v2
  4401  004F5C                     l2802:
  4402                           
  4403                           ;ssd.c: 44:     if (pos == 3) {
  4404  004F5C  0E03               	movlw	3
  4405  004F5E  182A               	xorwf	ssdDigit@pos^0,w,c
  4406  004F60  A4D8               	btfss	status,2,c
  4407  004F62  EFB5  F027         	goto	u2941
  4408  004F66  EFB7  F027         	goto	u2940
  4409  004F6A                     u2941:
  4410  004F6A  EFB9  F027         	goto	l287
  4411  004F6E                     u2940:
  4412  004F6E                     
  4413                           ;ssd.c: 45:         v3 = val;
  4414  004F6E  C02B  F079         	movff	ssdDigit@val,_v3
  4415  004F72                     l287:
  4416  004F72  0012               	return		;funcret
  4417  004F74                     __end_of_ssdDigit:
  4418                           	callstack 0
  4419                           
  4420 ;; *************** function _serial_tx_str *****************
  4421 ;; Defined at:
  4422 ;;		line 56 in file "serial.c"
  4423 ;; Parameters:    Size  Location     Type
  4424 ;;  val             2    1[COMRAM] PTR const unsigned char 
  4425 ;;		 -> STR_37(21), STR_36(19), STR_35(20), STR_34(50), 
  4426 ;;		 -> STR_27(31), STR_24(4), STR_23(12), STR_22(25), 
  4427 ;;		 -> STR_18(19), STR_16(56), STR_13(20), STR_8(24), 
  4428 ;;		 -> STR_7(24), STR_6(24), STR_5(26), STR_4(30), 
  4429 ;;		 -> STR_3(35), 
  4430 ;; Auto vars:     Size  Location     Type
  4431 ;;  i               1    5[COMRAM] unsigned char 
  4432 ;; Return value:  Size  Location     Type
  4433 ;;                  1    wreg      void 
  4434 ;; Registers used:
  4435 ;;		wreg, status,2, status,0, tblptrl, tblptrh, tblptru, cstack
  4436 ;; Tracked objects:
  4437 ;;		On entry : 0/0
  4438 ;;		On exit  : 0/0
  4439 ;;		Unchanged: 0/0
  4440 ;; Data sizes:     COMRAM   BANK0   BANK1   BANK2   BANK3   BANK4   BANK5
  4441 ;;      Params:         2       0       0       0       0       0       0
  4442 ;;      Locals:         1       0       0       0       0       0       0
  4443 ;;      Temps:          2       0       0       0       0       0       0
  4444 ;;      Totals:         5       0       0       0       0       0       0
  4445 ;;Total ram usage:        5 bytes
  4446 ;; Hardware stack levels used: 1
  4447 ;; Hardware stack levels required when called: 1
  4448 ;; This function calls:
  4449 ;;		_serial_tx
  4450 ;; This function is called by:
  4451 ;;		_main
  4452 ;;		_telaInicial
  4453 ;;		_opcaoInvalida
  4454 ;;		_abastecimentoBomba
  4455 ;;		_selecaoCombustivel
  4456 ;; This function uses a non-reentrant model
  4457 ;;
  4458                           
  4459                           	psect	text14
  4460  004E20                     __ptext14:
  4461                           	callstack 0
  4462  004E20                     _serial_tx_str:
  4463                           	callstack 28
  4464  004E20                     
  4465                           ;serial.c: 56: void serial_tx_str(const char* val);serial.c: 57: {;serial.c: 58:   unsig
      +                          ned char i=0;
  4466  004E20  0E00               	movlw	0
  4467  004E22  6E06               	movwf	serial_tx_str@i^0,c
  4468                           
  4469                           ;serial.c: 60:   while(val[i])
  4470  004E24  EF23  F027         	goto	l2646
  4471  004E28                     l2642:
  4472                           
  4473                           ;serial.c: 61:   {;serial.c: 62:     serial_tx(val[i]);
  4474  004E28  5006               	movf	serial_tx_str@i^0,w,c
  4475  004E2A  2402               	addwf	serial_tx_str@val^0,w,c
  4476  004E2C  6E04               	movwf	??_serial_tx_str^0,c
  4477  004E2E  0E00               	movlw	0
  4478  004E30  2003               	addwfc	(serial_tx_str@val+1)^0,w,c
  4479  004E32  6E05               	movwf	(??_serial_tx_str+1)^0,c
  4480  004E34  C004  FFF6         	movff	??_serial_tx_str,tblptrl
  4481  004E38  C005  FFF7         	movff	??_serial_tx_str+1,tblptrh
  4482  004E3C                     	if	0	;tblptru may be non-zero
  4483  004E3C                     	endif
  4484  004E3C                     	if	0	;tblptru may be non-zero
  4485  004E3C                     	endif
  4486  004E3C  0008               	tblrd		*
  4487  004E3E  50F5               	movf	tablat,w,c
  4488  004E40  EC9B  F025         	call	_serial_tx
  4489  004E44                     
  4490                           ;serial.c: 63:     i++;
  4491  004E44  2A06               	incf	serial_tx_str@i^0,f,c
  4492  004E46                     l2646:
  4493                           
  4494                           ;serial.c: 60:   while(val[i])
  4495  004E46  5006               	movf	serial_tx_str@i^0,w,c
  4496  004E48  2402               	addwf	serial_tx_str@val^0,w,c
  4497  004E4A  6E04               	movwf	??_serial_tx_str^0,c
  4498  004E4C  0E00               	movlw	0
  4499  004E4E  2003               	addwfc	(serial_tx_str@val+1)^0,w,c
  4500  004E50  6E05               	movwf	(??_serial_tx_str+1)^0,c
  4501  004E52  C004  FFF6         	movff	??_serial_tx_str,tblptrl
  4502  004E56  C005  FFF7         	movff	??_serial_tx_str+1,tblptrh
  4503  004E5A                     	if	0	;tblptru may be non-zero
  4504  004E5A                     	endif
  4505  004E5A                     	if	0	;tblptru may be non-zero
  4506  004E5A                     	endif
  4507  004E5A  0008               	tblrd		*
  4508  004E5C  50F5               	movf	tablat,w,c
  4509  004E5E  0900               	iorlw	0
  4510  004E60  A4D8               	btfss	status,2,c
  4511  004E62  EF35  F027         	goto	u2521
  4512  004E66  EF37  F027         	goto	u2520
  4513  004E6A                     u2521:
  4514  004E6A  EF14  F027         	goto	l2642
  4515  004E6E                     u2520:
  4516  004E6E  0012               	return		;funcret
  4517  004E70                     __end_of_serial_tx_str:
  4518                           	callstack 0
  4519                           
  4520 ;; *************** function _serial_tx *****************
  4521 ;; Defined at:
  4522 ;;		line 50 in file "serial.c"
  4523 ;; Parameters:    Size  Location     Type
  4524 ;;  val             1    wreg     unsigned char 
  4525 ;; Auto vars:     Size  Location     Type
  4526 ;;  val             1    0[COMRAM] unsigned char 
  4527 ;; Return value:  Size  Location     Type
  4528 ;;                  1    wreg      void 
  4529 ;; Registers used:
  4530 ;;		wreg
  4531 ;; Tracked objects:
  4532 ;;		On entry : 0/0
  4533 ;;		On exit  : 0/0
  4534 ;;		Unchanged: 0/0
  4535 ;; Data sizes:     COMRAM   BANK0   BANK1   BANK2   BANK3   BANK4   BANK5
  4536 ;;      Params:         0       0       0       0       0       0       0
  4537 ;;      Locals:         1       0       0       0       0       0       0
  4538 ;;      Temps:          0       0       0       0       0       0       0
  4539 ;;      Totals:         1       0       0       0       0       0       0
  4540 ;;Total ram usage:        1 bytes
  4541 ;; Hardware stack levels used: 1
  4542 ;; This function calls:
  4543 ;;		Nothing
  4544 ;; This function is called by:
  4545 ;;		_serial_tx_str
  4546 ;;		_abastecimentoBomba
  4547 ;;		_selecaoCombustivel
  4548 ;; This function uses a non-reentrant model
  4549 ;;
  4550                           
  4551                           	psect	text15
  4552  004B36                     __ptext15:
  4553                           	callstack 0
  4554  004B36                     _serial_tx:
  4555                           	callstack 28
  4556                           
  4557                           ;incstack = 0
  4558                           ;serial_tx@val stored from wreg
  4559  004B36  6E01               	movwf	serial_tx@val^0,c
  4560  004B38                     
  4561                           ;serial.c: 50: void serial_tx(unsigned char val);serial.c: 51: {;serial.c: 52:   TXREG=v
      +                          al;
  4562  004B38  C001  FFAD         	movff	serial_tx@val,4013	;volatile
  4563  004B3C                     l20:
  4564  004B3C  A2AC               	btfss	172,1,c	;volatile
  4565  004B3E  EFA3  F025         	goto	u221
  4566  004B42  EFA5  F025         	goto	u220
  4567  004B46                     u221:
  4568  004B46  EF9E  F025         	goto	l20
  4569  004B4A                     u220:
  4570  004B4A  0012               	return		;funcret
  4571  004B4C                     __end_of_serial_tx:
  4572                           	callstack 0
  4573                           
  4574 ;; *************** function _rgbColor *****************
  4575 ;; Defined at:
  4576 ;;		line 3 in file "rgb.c"
  4577 ;; Parameters:    Size  Location     Type
  4578 ;;  led             2    6[COMRAM] int 
  4579 ;; Auto vars:     Size  Location     Type
  4580 ;;		None
  4581 ;; Return value:  Size  Location     Type
  4582 ;;                  1    wreg      void 
  4583 ;; Registers used:
  4584 ;;		wreg, status,2, status,0, cstack
  4585 ;; Tracked objects:
  4586 ;;		On entry : 0/0
  4587 ;;		On exit  : 0/0
  4588 ;;		Unchanged: 0/0
  4589 ;; Data sizes:     COMRAM   BANK0   BANK1   BANK2   BANK3   BANK4   BANK5
  4590 ;;      Params:         2       0       0       0       0       0       0
  4591 ;;      Locals:         0       0       0       0       0       0       0
  4592 ;;      Temps:          0       0       0       0       0       0       0
  4593 ;;      Totals:         2       0       0       0       0       0       0
  4594 ;;Total ram usage:        2 bytes
  4595 ;; Hardware stack levels used: 1
  4596 ;; Hardware stack levels required when called: 1
  4597 ;; This function calls:
  4598 ;;		_digitalWrite
  4599 ;; This function is called by:
  4600 ;;		_telaInicial
  4601 ;;		_abastecimentoBomba
  4602 ;; This function uses a non-reentrant model
  4603 ;;
  4604                           
  4605                           	psect	text16
  4606  00525E                     __ptext16:
  4607                           	callstack 0
  4608  00525E                     _rgbColor:
  4609                           	callstack 28
  4610  00525E                     
  4611                           ;rgb.c: 4:  if (led & 1) {
  4612  00525E  A007               	btfss	rgbColor@led^0,0,c
  4613  005260  EF34  F029         	goto	u2881
  4614  005264  EF36  F029         	goto	u2880
  4615  005268                     u2881:
  4616  005268  EF42  F029         	goto	l2776
  4617  00526C                     u2880:
  4618  00526C                     
  4619                           ;rgb.c: 5:   digitalWrite(PIN_D0, 1);
  4620  00526C  0E00               	movlw	0
  4621  00526E  6E02               	movwf	(digitalWrite@pin+1)^0,c
  4622  005270  0E18               	movlw	24
  4623  005272  6E01               	movwf	digitalWrite@pin^0,c
  4624  005274  0E00               	movlw	0
  4625  005276  6E04               	movwf	(digitalWrite@value+1)^0,c
  4626  005278  0E01               	movlw	1
  4627  00527A  6E03               	movwf	digitalWrite@value^0,c
  4628  00527C  EC50  F02F         	call	_digitalWrite	;wreg free
  4629                           
  4630                           ;rgb.c: 6:  } else {
  4631  005280  EF4C  F029         	goto	l2778
  4632  005284                     l2776:
  4633                           
  4634                           ;rgb.c: 7:   digitalWrite(PIN_D0, 0);
  4635  005284  0E00               	movlw	0
  4636  005286  6E02               	movwf	(digitalWrite@pin+1)^0,c
  4637  005288  0E18               	movlw	24
  4638  00528A  6E01               	movwf	digitalWrite@pin^0,c
  4639  00528C  0E00               	movlw	0
  4640  00528E  6E04               	movwf	(digitalWrite@value+1)^0,c
  4641  005290  0E00               	movlw	0
  4642  005292  6E03               	movwf	digitalWrite@value^0,c
  4643  005294  EC50  F02F         	call	_digitalWrite	;wreg free
  4644  005298                     l2778:
  4645                           
  4646                           ;rgb.c: 9:  if (led & 2) {
  4647  005298  A207               	btfss	rgbColor@led^0,1,c
  4648  00529A  EF51  F029         	goto	u2891
  4649  00529E  EF53  F029         	goto	u2890
  4650  0052A2                     u2891:
  4651  0052A2  EF5F  F029         	goto	l2782
  4652  0052A6                     u2890:
  4653  0052A6                     
  4654                           ;rgb.c: 10:   digitalWrite(PIN_D1, 1);
  4655  0052A6  0E00               	movlw	0
  4656  0052A8  6E02               	movwf	(digitalWrite@pin+1)^0,c
  4657  0052AA  0E19               	movlw	25
  4658  0052AC  6E01               	movwf	digitalWrite@pin^0,c
  4659  0052AE  0E00               	movlw	0
  4660  0052B0  6E04               	movwf	(digitalWrite@value+1)^0,c
  4661  0052B2  0E01               	movlw	1
  4662  0052B4  6E03               	movwf	digitalWrite@value^0,c
  4663  0052B6  EC50  F02F         	call	_digitalWrite	;wreg free
  4664                           
  4665                           ;rgb.c: 11:  } else {
  4666  0052BA  EF69  F029         	goto	l2784
  4667  0052BE                     l2782:
  4668                           
  4669                           ;rgb.c: 12:   digitalWrite(PIN_D1, 0);
  4670  0052BE  0E00               	movlw	0
  4671  0052C0  6E02               	movwf	(digitalWrite@pin+1)^0,c
  4672  0052C2  0E19               	movlw	25
  4673  0052C4  6E01               	movwf	digitalWrite@pin^0,c
  4674  0052C6  0E00               	movlw	0
  4675  0052C8  6E04               	movwf	(digitalWrite@value+1)^0,c
  4676  0052CA  0E00               	movlw	0
  4677  0052CC  6E03               	movwf	digitalWrite@value^0,c
  4678  0052CE  EC50  F02F         	call	_digitalWrite	;wreg free
  4679  0052D2                     l2784:
  4680                           
  4681                           ;rgb.c: 14:  if (led & 4) {
  4682  0052D2  A407               	btfss	rgbColor@led^0,2,c
  4683  0052D4  EF6E  F029         	goto	u2901
  4684  0052D8  EF70  F029         	goto	u2900
  4685  0052DC                     u2901:
  4686  0052DC  EF7C  F029         	goto	l2788
  4687  0052E0                     u2900:
  4688  0052E0                     
  4689                           ;rgb.c: 15:   digitalWrite(PIN_D2, 1);
  4690  0052E0  0E00               	movlw	0
  4691  0052E2  6E02               	movwf	(digitalWrite@pin+1)^0,c
  4692  0052E4  0E1A               	movlw	26
  4693  0052E6  6E01               	movwf	digitalWrite@pin^0,c
  4694  0052E8  0E00               	movlw	0
  4695  0052EA  6E04               	movwf	(digitalWrite@value+1)^0,c
  4696  0052EC  0E01               	movlw	1
  4697  0052EE  6E03               	movwf	digitalWrite@value^0,c
  4698  0052F0  EC50  F02F         	call	_digitalWrite	;wreg free
  4699                           
  4700                           ;rgb.c: 16:  } else {
  4701  0052F4  EF86  F029         	goto	l151
  4702  0052F8                     l2788:
  4703                           
  4704                           ;rgb.c: 17:   digitalWrite(PIN_D2, 0);
  4705  0052F8  0E00               	movlw	0
  4706  0052FA  6E02               	movwf	(digitalWrite@pin+1)^0,c
  4707  0052FC  0E1A               	movlw	26
  4708  0052FE  6E01               	movwf	digitalWrite@pin^0,c
  4709  005300  0E00               	movlw	0
  4710  005302  6E04               	movwf	(digitalWrite@value+1)^0,c
  4711  005304  0E00               	movlw	0
  4712  005306  6E03               	movwf	digitalWrite@value^0,c
  4713  005308  EC50  F02F         	call	_digitalWrite	;wreg free
  4714  00530C                     l151:
  4715  00530C  0012               	return		;funcret
  4716  00530E                     __end_of_rgbColor:
  4717                           	callstack 0
  4718                           
  4719 ;; *************** function _lcdString *****************
  4720 ;; Defined at:
  4721 ;;		line 57 in file "lcd.c"
  4722 ;; Parameters:    Size  Location     Type
  4723 ;;  msg             2   14[COMRAM] PTR unsigned char 
  4724 ;;		 -> STR_33(14), STR_32(7), STR_31(14), STR_30(7), 
  4725 ;;		 -> STR_29(14), STR_28(9), STR_26(13), STR_25(14), 
  4726 ;;		 -> STR_21(3), STR_20(9), STR_19(11), STR_17(15), 
  4727 ;;		 -> STR_15(16), STR_14(12), STR_12(13), STR_11(11), 
  4728 ;;		 -> STR_10(9), STR_9(17), STR_2(15), STR_1(13), 
  4729 ;; Auto vars:     Size  Location     Type
  4730 ;;  i               2   18[COMRAM] int 
  4731 ;; Return value:  Size  Location     Type
  4732 ;;                  1    wreg      void 
  4733 ;; Registers used:
  4734 ;;		wreg, status,2, status,0, tblptrl, tblptrh, tblptru, cstack
  4735 ;; Tracked objects:
  4736 ;;		On entry : 0/0
  4737 ;;		On exit  : 0/0
  4738 ;;		Unchanged: 0/0
  4739 ;; Data sizes:     COMRAM   BANK0   BANK1   BANK2   BANK3   BANK4   BANK5
  4740 ;;      Params:         2       0       0       0       0       0       0
  4741 ;;      Locals:         2       0       0       0       0       0       0
  4742 ;;      Temps:          2       0       0       0       0       0       0
  4743 ;;      Totals:         6       0       0       0       0       0       0
  4744 ;;Total ram usage:        6 bytes
  4745 ;; Hardware stack levels used: 1
  4746 ;; Hardware stack levels required when called: 5
  4747 ;; This function calls:
  4748 ;;		_lcdChar
  4749 ;; This function is called by:
  4750 ;;		_main
  4751 ;;		_telaInicial
  4752 ;;		_opcaoInvalida
  4753 ;;		_abastecimentoBomba
  4754 ;;		_selecaoCombustivel
  4755 ;; This function uses a non-reentrant model
  4756 ;;
  4757                           
  4758                           	psect	text17
  4759  004E70                     __ptext17:
  4760                           	callstack 0
  4761  004E70                     _lcdString:
  4762                           	callstack 24
  4763  004E70                     
  4764                           ;lcd.c: 58:  int i = 0;
  4765  004E70  0E00               	movlw	0
  4766  004E72  6E14               	movwf	(lcdString@i+1)^0,c
  4767  004E74  0E00               	movlw	0
  4768  004E76  6E13               	movwf	lcdString@i^0,c
  4769                           
  4770                           ;lcd.c: 59:  while (msg[i] != 0) {
  4771  004E78  EF4E  F027         	goto	l2770
  4772  004E7C                     l2766:
  4773                           
  4774                           ;lcd.c: 60:   lcdChar(msg[i]);
  4775  004E7C  5013               	movf	lcdString@i^0,w,c
  4776  004E7E  240F               	addwf	lcdString@msg^0,w,c
  4777  004E80  6E11               	movwf	??_lcdString^0,c
  4778  004E82  5014               	movf	(lcdString@i+1)^0,w,c
  4779  004E84  2010               	addwfc	(lcdString@msg+1)^0,w,c
  4780  004E86  6E12               	movwf	(??_lcdString+1)^0,c
  4781  004E88  C011  FFF6         	movff	??_lcdString,tblptrl
  4782  004E8C  C012  FFF7         	movff	??_lcdString+1,tblptrh
  4783  004E90                     	if	0	;tblptru may be non-zero
  4784  004E90                     	endif
  4785  004E90                     	if	0	;tblptru may be non-zero
  4786  004E90                     	endif
  4787  004E90  0008               	tblrd		*
  4788  004E92  50F5               	movf	tablat,w,c
  4789  004E94  ECB5  F025         	call	_lcdChar
  4790  004E98                     
  4791                           ;lcd.c: 61:   i++;
  4792  004E98  4A13               	infsnz	lcdString@i^0,f,c
  4793  004E9A  2A14               	incf	(lcdString@i+1)^0,f,c
  4794  004E9C                     l2770:
  4795                           
  4796                           ;lcd.c: 59:  while (msg[i] != 0) {
  4797  004E9C  5013               	movf	lcdString@i^0,w,c
  4798  004E9E  240F               	addwf	lcdString@msg^0,w,c
  4799  004EA0  6E11               	movwf	??_lcdString^0,c
  4800  004EA2  5014               	movf	(lcdString@i+1)^0,w,c
  4801  004EA4  2010               	addwfc	(lcdString@msg+1)^0,w,c
  4802  004EA6  6E12               	movwf	(??_lcdString+1)^0,c
  4803  004EA8  C011  FFF6         	movff	??_lcdString,tblptrl
  4804  004EAC  C012  FFF7         	movff	??_lcdString+1,tblptrh
  4805  004EB0                     	if	0	;tblptru may be non-zero
  4806  004EB0                     	endif
  4807  004EB0                     	if	0	;tblptru may be non-zero
  4808  004EB0                     	endif
  4809  004EB0  0008               	tblrd		*
  4810  004EB2  50F5               	movf	tablat,w,c
  4811  004EB4  0900               	iorlw	0
  4812  004EB6  A4D8               	btfss	status,2,c
  4813  004EB8  EF60  F027         	goto	u2871
  4814  004EBC  EF62  F027         	goto	u2870
  4815  004EC0                     u2871:
  4816  004EC0  EF3E  F027         	goto	l2766
  4817  004EC4                     u2870:
  4818  004EC4  0012               	return		;funcret
  4819  004EC6                     __end_of_lcdString:
  4820                           	callstack 0
  4821                           
  4822 ;; *************** function _lcdChar *****************
  4823 ;; Defined at:
  4824 ;;		line 52 in file "lcd.c"
  4825 ;; Parameters:    Size  Location     Type
  4826 ;;  value           1    wreg     unsigned char 
  4827 ;; Auto vars:     Size  Location     Type
  4828 ;;  value           1   13[COMRAM] unsigned char 
  4829 ;; Return value:  Size  Location     Type
  4830 ;;                  1    wreg      void 
  4831 ;; Registers used:
  4832 ;;		wreg, status,2, status,0, cstack
  4833 ;; Tracked objects:
  4834 ;;		On entry : 0/0
  4835 ;;		On exit  : 0/0
  4836 ;;		Unchanged: 0/0
  4837 ;; Data sizes:     COMRAM   BANK0   BANK1   BANK2   BANK3   BANK4   BANK5
  4838 ;;      Params:         0       0       0       0       0       0       0
  4839 ;;      Locals:         1       0       0       0       0       0       0
  4840 ;;      Temps:          0       0       0       0       0       0       0
  4841 ;;      Totals:         1       0       0       0       0       0       0
  4842 ;;Total ram usage:        1 bytes
  4843 ;; Hardware stack levels used: 1
  4844 ;; Hardware stack levels required when called: 4
  4845 ;; This function calls:
  4846 ;;		_delayMicro
  4847 ;;		_pushByte
  4848 ;; This function is called by:
  4849 ;;		_lcdString
  4850 ;;		_abastecimentoBomba
  4851 ;;		_lcdNumber
  4852 ;; This function uses a non-reentrant model
  4853 ;;
  4854                           
  4855                           	psect	text18
  4856  004B6A                     __ptext18:
  4857                           	callstack 0
  4858  004B6A                     _lcdChar:
  4859                           	callstack 24
  4860                           
  4861                           ;incstack = 0
  4862                           ;lcdChar@value stored from wreg
  4863  004B6A  6E0E               	movwf	lcdChar@value^0,c
  4864  004B6C                     
  4865                           ;lcd.c: 53:  pushByte(value, 1);
  4866  004B6C  0E00               	movlw	0
  4867  004B6E  6E0B               	movwf	(pushByte@rs+1)^0,c
  4868  004B70  0E01               	movlw	1
  4869  004B72  6E0A               	movwf	pushByte@rs^0,c
  4870  004B74  500E               	movf	lcdChar@value^0,w,c
  4871  004B76  ECBA  F027         	call	_pushByte
  4872  004B7A                     
  4873                           ;lcd.c: 54:  delayMicro(80);
  4874  004B7A  0E00               	movlw	0
  4875  004B7C  6E02               	movwf	(delayMicro@a+1)^0,c
  4876  004B7E  0E50               	movlw	80
  4877  004B80  6E01               	movwf	delayMicro@a^0,c
  4878  004B82  EC81  F025         	call	_delayMicro	;wreg free
  4879  004B86  0012               	return		;funcret
  4880  004B88                     __end_of_lcdChar:
  4881                           	callstack 0
  4882                           
  4883 ;; *************** function _kpReadKey *****************
  4884 ;; Defined at:
  4885 ;;		line 17 in file "keypad.c"
  4886 ;; Parameters:    Size  Location     Type
  4887 ;;		None
  4888 ;; Auto vars:     Size  Location     Type
  4889 ;;  i               2    3[COMRAM] int 
  4890 ;; Return value:  Size  Location     Type
  4891 ;;                  1    wreg      unsigned char 
  4892 ;; Registers used:
  4893 ;;		wreg, status,2, status,0, tblptrl, tblptrh, tblptru
  4894 ;; Tracked objects:
  4895 ;;		On entry : 0/0
  4896 ;;		On exit  : 0/0
  4897 ;;		Unchanged: 0/0
  4898 ;; Data sizes:     COMRAM   BANK0   BANK1   BANK2   BANK3   BANK4   BANK5
  4899 ;;      Params:         0       0       0       0       0       0       0
  4900 ;;      Locals:         2       0       0       0       0       0       0
  4901 ;;      Temps:          3       0       0       0       0       0       0
  4902 ;;      Totals:         5       0       0       0       0       0       0
  4903 ;;Total ram usage:        5 bytes
  4904 ;; Hardware stack levels used: 1
  4905 ;; This function calls:
  4906 ;;		Nothing
  4907 ;; This function is called by:
  4908 ;;		_main
  4909 ;;		_abastecimentoBomba
  4910 ;; This function uses a non-reentrant model
  4911 ;;
  4912                           
  4913                           	psect	text19
  4914  0050A6                     __ptext19:
  4915                           	callstack 0
  4916  0050A6                     _kpReadKey:
  4917                           	callstack 28
  4918  0050A6                     
  4919                           ;keypad.c: 18:  int i;;keypad.c: 19:  for(i=0;i<10;i++){
  4920  0050A6  0E00               	movlw	0
  4921  0050A8  6E05               	movwf	(kpReadKey@i+1)^0,c
  4922  0050AA  0E00               	movlw	0
  4923  0050AC  6E04               	movwf	kpReadKey@i^0,c
  4924  0050AE                     l2680:
  4925                           
  4926                           ;keypad.c: 20:   if (((keys) & (1<<(i)))){
  4927  0050AE  C004  F001         	movff	kpReadKey@i,??_kpReadKey
  4928  0050B2  0E01               	movlw	1
  4929  0050B4  6E02               	movwf	(??_kpReadKey+1)^0,c
  4930  0050B6  0E00               	movlw	0
  4931  0050B8  6E03               	movwf	(??_kpReadKey+2)^0,c
  4932  0050BA  2A01               	incf	??_kpReadKey^0,f,c
  4933  0050BC  EF63  F028         	goto	u2564
  4934  0050C0                     u2565:
  4935  0050C0  90D8               	bcf	status,0,c
  4936  0050C2  3602               	rlcf	(??_kpReadKey+1)^0,f,c
  4937  0050C4  3603               	rlcf	(??_kpReadKey+2)^0,f,c
  4938  0050C6                     u2564:
  4939  0050C6  2E01               	decfsz	??_kpReadKey^0,f,c
  4940  0050C8  EF60  F028         	goto	u2565
  4941  0050CC  0100               	movlb	0	; () banked
  4942  0050CE  5184               	movf	_keys& (0+255),w,b
  4943  0050D0  1602               	andwf	(??_kpReadKey+1)^0,f,c
  4944  0050D2  5185               	movf	(_keys+1)& (0+255),w,b
  4945  0050D4  1603               	andwf	(??_kpReadKey+2)^0,f,c
  4946  0050D6  5002               	movf	(??_kpReadKey+1)^0,w,c
  4947  0050D8  1003               	iorwf	(??_kpReadKey+2)^0,w,c
  4948  0050DA  B4D8               	btfsc	status,2,c
  4949  0050DC  EF72  F028         	goto	u2571
  4950  0050E0  EF74  F028         	goto	u2570
  4951  0050E4                     u2571:
  4952  0050E4  EF7E  F028         	goto	l2686
  4953  0050E8                     u2570:
  4954  0050E8                     
  4955                           ; BSR set to: 0
  4956                           ;keypad.c: 21:    return charKey[i];
  4957  0050E8  0E51               	movlw	low _charKey
  4958  0050EA  2404               	addwf	kpReadKey@i^0,w,c
  4959  0050EC  6EF6               	movwf	tblptrl,c
  4960  0050EE  0E7D               	movlw	high _charKey
  4961  0050F0  2005               	addwfc	(kpReadKey@i+1)^0,w,c
  4962  0050F2  6EF7               	movwf	tblptrh,c
  4963  0050F4                     	if	0	;There are less than 3 active tblptr bytes
  4964  0050F4                     	endif
  4965  0050F4  0008               	tblrd		*
  4966  0050F6  50F5               	movf	tablat,w,c
  4967  0050F8  EF8F  F028         	goto	l67
  4968  0050FC                     l2686:
  4969                           
  4970                           ; BSR set to: 0
  4971                           ;keypad.c: 23:  }
  4972  0050FC  4A04               	infsnz	kpReadKey@i^0,f,c
  4973  0050FE  2A05               	incf	(kpReadKey@i+1)^0,f,c
  4974  005100                     
  4975                           ; BSR set to: 0
  4976  005100  BE05               	btfsc	(kpReadKey@i+1)^0,7,c
  4977  005102  EF8C  F028         	goto	u2581
  4978  005106  5005               	movf	(kpReadKey@i+1)^0,w,c
  4979  005108  E109               	bnz	u2580
  4980  00510A  0E0A               	movlw	10
  4981  00510C  5C04               	subwf	kpReadKey@i^0,w,c
  4982  00510E  A0D8               	btfss	status,0,c
  4983  005110  EF8C  F028         	goto	u2581
  4984  005114  EF8E  F028         	goto	u2580
  4985  005118                     u2581:
  4986  005118  EF57  F028         	goto	l2680
  4987  00511C                     u2580:
  4988  00511C                     
  4989                           ; BSR set to: 0
  4990                           ;keypad.c: 25:  return 0;
  4991  00511C  0E00               	movlw	0
  4992  00511E                     l67:
  4993                           
  4994                           ; BSR set to: 0
  4995  00511E  0012               	return		;funcret
  4996  005120                     __end_of_kpReadKey:
  4997                           	callstack 0
  4998                           
  4999 ;; *************** function _kpDebounce *****************
  5000 ;; Defined at:
  5001 ;;		line 27 in file "keypad.c"
  5002 ;; Parameters:    Size  Location     Type
  5003 ;;		None
  5004 ;; Auto vars:     Size  Location     Type
  5005 ;;  i               2   12[COMRAM] int 
  5006 ;; Return value:  Size  Location     Type
  5007 ;;                  1    wreg      void 
  5008 ;; Registers used:
  5009 ;;		wreg, status,2, status,0, cstack
  5010 ;; Tracked objects:
  5011 ;;		On entry : 0/0
  5012 ;;		On exit  : 0/0
  5013 ;;		Unchanged: 0/0
  5014 ;; Data sizes:     COMRAM   BANK0   BANK1   BANK2   BANK3   BANK4   BANK5
  5015 ;;      Params:         0       0       0       0       0       0       0
  5016 ;;      Locals:         2       0       0       0       0       0       0
  5017 ;;      Temps:          3       0       0       0       0       0       0
  5018 ;;      Totals:         5       0       0       0       0       0       0
  5019 ;;Total ram usage:        5 bytes
  5020 ;; Hardware stack levels used: 1
  5021 ;; Hardware stack levels required when called: 3
  5022 ;; This function calls:
  5023 ;;		_digitalRead
  5024 ;;		_soWrite
  5025 ;; This function is called by:
  5026 ;;		_main
  5027 ;;		_abastecimentoBomba
  5028 ;; This function uses a non-reentrant model
  5029 ;;
  5030                           
  5031                           	psect	text20
  5032  00568A                     __ptext20:
  5033                           	callstack 0
  5034  00568A                     _kpDebounce:
  5035                           	callstack 25
  5036  00568A                     
  5037                           ;keypad.c: 28:     int i;;keypad.c: 29:     static unsigned char tempo;;keypad.c: 30:   
      +                            static unsigned int newRead;;keypad.c: 31:     static unsigned int oldRead;;keypad.c: 
      +                          32:     newRead = 0;
  5038  00568A  0E00               	movlw	0
  5039  00568C  0100               	movlb	0	; () banked
  5040  00568E  6F83               	movwf	(kpDebounce@newRead+1)& (0+255),b
  5041  005690  0E00               	movlw	0
  5042  005692  6F82               	movwf	kpDebounce@newRead& (0+255),b
  5043                           
  5044                           ;keypad.c: 33:     for(i = 0; i<5; i++){
  5045  005694  0E00               	movlw	0
  5046  005696  6E0E               	movwf	(kpDebounce@i+1)^0,c
  5047  005698  0E00               	movlw	0
  5048  00569A  6E0D               	movwf	kpDebounce@i^0,c
  5049  00569C                     l2696:
  5050  00569C  BE0E               	btfsc	(kpDebounce@i+1)^0,7,c
  5051  00569E  EF5A  F02B         	goto	u2591
  5052  0056A2  500E               	movf	(kpDebounce@i+1)^0,w,c
  5053  0056A4  E109               	bnz	u2590
  5054  0056A6  0E05               	movlw	5
  5055  0056A8  5C0D               	subwf	kpDebounce@i^0,w,c
  5056  0056AA  A0D8               	btfss	status,0,c
  5057  0056AC  EF5A  F02B         	goto	u2591
  5058  0056B0  EF5C  F02B         	goto	u2590
  5059  0056B4                     u2591:
  5060  0056B4  EF5E  F02B         	goto	l2700
  5061  0056B8                     u2590:
  5062  0056B8  EFC1  F02B         	goto	l2712
  5063  0056BC                     l2700:
  5064                           
  5065                           ;keypad.c: 35:       soWrite(1<<(i+3));
  5066  0056BC  C00D  F00A         	movff	kpDebounce@i,??_kpDebounce
  5067  0056C0  0E03               	movlw	3
  5068  0056C2  260A               	addwf	??_kpDebounce^0,f,c
  5069  0056C4  0E01               	movlw	1
  5070  0056C6  6E0B               	movwf	(??_kpDebounce+1)^0,c
  5071  0056C8  0E00               	movlw	0
  5072  0056CA  6E0C               	movwf	(??_kpDebounce+2)^0,c
  5073  0056CC  2A0A               	incf	??_kpDebounce^0,f,c
  5074  0056CE  EF6C  F02B         	goto	u2604
  5075  0056D2                     u2605:
  5076  0056D2  90D8               	bcf	status,0,c
  5077  0056D4  360B               	rlcf	(??_kpDebounce+1)^0,f,c
  5078  0056D6  360C               	rlcf	(??_kpDebounce+2)^0,f,c
  5079  0056D8                     u2604:
  5080  0056D8  2E0A               	decfsz	??_kpDebounce^0,f,c
  5081  0056DA  EF69  F02B         	goto	u2605
  5082  0056DE  C00B  F007         	movff	??_kpDebounce+1,soWrite@value
  5083  0056E2  C00C  F008         	movff	??_kpDebounce+2,soWrite@value+1
  5084  0056E6  ECE9  F026         	call	_soWrite	;wreg free
  5085                           
  5086                           ;keypad.c: 36:       if(digitalRead(PIN_B2)){
  5087  0056EA  0E00               	movlw	0
  5088  0056EC  6E02               	movwf	(digitalRead@pin+1)^0,c
  5089  0056EE  0E0A               	movlw	10
  5090  0056F0  6E01               	movwf	digitalRead@pin^0,c
  5091  0056F2  ECE4  F02B         	call	_digitalRead	;wreg free
  5092  0056F6  5001               	movf	?_digitalRead^0,w,c
  5093  0056F8  1002               	iorwf	(?_digitalRead+1)^0,w,c
  5094  0056FA  B4D8               	btfsc	status,2,c
  5095  0056FC  EF82  F02B         	goto	u2611
  5096  005700  EF84  F02B         	goto	u2610
  5097  005704                     u2611:
  5098  005704  EF98  F02B         	goto	l2704
  5099  005708                     u2610:
  5100  005708                     
  5101                           ;keypad.c: 37:         ((newRead) |= (1<<(i)));
  5102  005708  C00D  F00A         	movff	kpDebounce@i,??_kpDebounce
  5103  00570C  0E01               	movlw	1
  5104  00570E  6E0B               	movwf	(??_kpDebounce+1)^0,c
  5105  005710  0E00               	movlw	0
  5106  005712  6E0C               	movwf	(??_kpDebounce+2)^0,c
  5107  005714  2A0A               	incf	??_kpDebounce^0,f,c
  5108  005716  EF90  F02B         	goto	u2624
  5109  00571A                     u2625:
  5110  00571A  90D8               	bcf	status,0,c
  5111  00571C  360B               	rlcf	(??_kpDebounce+1)^0,f,c
  5112  00571E  360C               	rlcf	(??_kpDebounce+2)^0,f,c
  5113  005720                     u2624:
  5114  005720  2E0A               	decfsz	??_kpDebounce^0,f,c
  5115  005722  EF8D  F02B         	goto	u2625
  5116  005726  500B               	movf	(??_kpDebounce+1)^0,w,c
  5117  005728  0100               	movlb	0	; () banked
  5118  00572A  1382               	iorwf	kpDebounce@newRead& (0+255),f,b
  5119  00572C  500C               	movf	(??_kpDebounce+2)^0,w,c
  5120  00572E  1383               	iorwf	(kpDebounce@newRead+1)& (0+255),f,b
  5121  005730                     l2704:
  5122                           
  5123                           ;keypad.c: 39:       if(digitalRead(PIN_B1)){
  5124  005730  0E00               	movlw	0
  5125  005732  6E02               	movwf	(digitalRead@pin+1)^0,c
  5126  005734  0E09               	movlw	9
  5127  005736  6E01               	movwf	digitalRead@pin^0,c
  5128  005738  ECE4  F02B         	call	_digitalRead	;wreg free
  5129  00573C  5001               	movf	?_digitalRead^0,w,c
  5130  00573E  1002               	iorwf	(?_digitalRead+1)^0,w,c
  5131  005740  B4D8               	btfsc	status,2,c
  5132  005742  EFA5  F02B         	goto	u2631
  5133  005746  EFA7  F02B         	goto	u2630
  5134  00574A                     u2631:
  5135  00574A  EFBD  F02B         	goto	l2708
  5136  00574E                     u2630:
  5137  00574E                     
  5138                           ;keypad.c: 40:         ((newRead) |= (1<<((i+5))));
  5139  00574E  C00D  F00A         	movff	kpDebounce@i,??_kpDebounce
  5140  005752  0E05               	movlw	5
  5141  005754  260A               	addwf	??_kpDebounce^0,f,c
  5142  005756  0E01               	movlw	1
  5143  005758  6E0B               	movwf	(??_kpDebounce+1)^0,c
  5144  00575A  0E00               	movlw	0
  5145  00575C  6E0C               	movwf	(??_kpDebounce+2)^0,c
  5146  00575E  2A0A               	incf	??_kpDebounce^0,f,c
  5147  005760  EFB5  F02B         	goto	u2644
  5148  005764                     u2645:
  5149  005764  90D8               	bcf	status,0,c
  5150  005766  360B               	rlcf	(??_kpDebounce+1)^0,f,c
  5151  005768  360C               	rlcf	(??_kpDebounce+2)^0,f,c
  5152  00576A                     u2644:
  5153  00576A  2E0A               	decfsz	??_kpDebounce^0,f,c
  5154  00576C  EFB2  F02B         	goto	u2645
  5155  005770  500B               	movf	(??_kpDebounce+1)^0,w,c
  5156  005772  0100               	movlb	0	; () banked
  5157  005774  1382               	iorwf	kpDebounce@newRead& (0+255),f,b
  5158  005776  500C               	movf	(??_kpDebounce+2)^0,w,c
  5159  005778  1383               	iorwf	(kpDebounce@newRead+1)& (0+255),f,b
  5160  00577A                     l2708:
  5161                           
  5162                           ;keypad.c: 42:     }
  5163  00577A  4A0D               	infsnz	kpDebounce@i^0,f,c
  5164  00577C  2A0E               	incf	(kpDebounce@i+1)^0,f,c
  5165  00577E  EF4E  F02B         	goto	l2696
  5166  005782                     l2712:
  5167                           
  5168                           ;keypad.c: 43:     if (oldRead == newRead) {
  5169  005782  0100               	movlb	0	; () banked
  5170  005784  5182               	movf	kpDebounce@newRead& (0+255),w,b
  5171  005786  1980               	xorwf	kpDebounce@oldRead& (0+255),w,b
  5172  005788  E107               	bnz	u2651
  5173  00578A  5183               	movf	(kpDebounce@newRead+1)& (0+255),w,b
  5174  00578C  1981               	xorwf	(kpDebounce@oldRead+1)& (0+255),w,b
  5175  00578E  A4D8               	btfss	status,2,c
  5176  005790  EFCC  F02B         	goto	u2651
  5177  005794  EFCE  F02B         	goto	u2650
  5178  005798                     u2651:
  5179  005798  EFD1  F02B         	goto	l2716
  5180  00579C                     u2650:
  5181  00579C                     
  5182                           ; BSR set to: 0
  5183                           ;keypad.c: 44:         tempo--;
  5184  00579C  067E               	decf	kpDebounce@tempo^0,f,c
  5185                           
  5186                           ;keypad.c: 45:     } else {
  5187  00579E  EFD7  F02B         	goto	l81
  5188  0057A2                     l2716:
  5189                           
  5190                           ; BSR set to: 0
  5191                           ;keypad.c: 46:         tempo = 1;
  5192  0057A2  0E01               	movlw	1
  5193  0057A4  6E7E               	movwf	kpDebounce@tempo^0,c
  5194  0057A6                     
  5195                           ; BSR set to: 0
  5196                           ;keypad.c: 47:         oldRead = newRead;
  5197  0057A6  C082  F080         	movff	kpDebounce@newRead,kpDebounce@oldRead
  5198  0057AA  C083  F081         	movff	kpDebounce@newRead+1,kpDebounce@oldRead+1
  5199  0057AE                     l81:
  5200                           
  5201                           ; BSR set to: 0
  5202                           ;keypad.c: 49:     if (tempo == 0) {
  5203  0057AE  507E               	movf	kpDebounce@tempo^0,w,c
  5204  0057B0  A4D8               	btfss	status,2,c
  5205  0057B2  EFDD  F02B         	goto	u2661
  5206  0057B6  EFDF  F02B         	goto	u2660
  5207  0057BA                     u2661:
  5208  0057BA  EFE3  F02B         	goto	l83
  5209  0057BE                     u2660:
  5210  0057BE                     
  5211                           ; BSR set to: 0
  5212                           ;keypad.c: 50:         keys = oldRead;
  5213  0057BE  C080  F084         	movff	kpDebounce@oldRead,_keys
  5214  0057C2  C081  F085         	movff	kpDebounce@oldRead+1,_keys+1
  5215  0057C6                     l83:
  5216                           
  5217                           ; BSR set to: 0
  5218  0057C6  0012               	return		;funcret
  5219  0057C8                     __end_of_kpDebounce:
  5220                           	callstack 0
  5221                           
  5222 ;; *************** function _digitalRead *****************
  5223 ;; Defined at:
  5224 ;;		line 39 in file "io.c"
  5225 ;; Parameters:    Size  Location     Type
  5226 ;;  pin             2    0[COMRAM] int 
  5227 ;; Auto vars:     Size  Location     Type
  5228 ;;		None
  5229 ;; Return value:  Size  Location     Type
  5230 ;;                  2    0[COMRAM] int 
  5231 ;; Registers used:
  5232 ;;		wreg, status,2, status,0
  5233 ;; Tracked objects:
  5234 ;;		On entry : 0/0
  5235 ;;		On exit  : 0/0
  5236 ;;		Unchanged: 0/0
  5237 ;; Data sizes:     COMRAM   BANK0   BANK1   BANK2   BANK3   BANK4   BANK5
  5238 ;;      Params:         2       0       0       0       0       0       0
  5239 ;;      Locals:         0       0       0       0       0       0       0
  5240 ;;      Temps:          3       0       0       0       0       0       0
  5241 ;;      Totals:         5       0       0       0       0       0       0
  5242 ;;Total ram usage:        5 bytes
  5243 ;; Hardware stack levels used: 1
  5244 ;; This function calls:
  5245 ;;		Nothing
  5246 ;; This function is called by:
  5247 ;;		_kpDebounce
  5248 ;; This function uses a non-reentrant model
  5249 ;;
  5250                           
  5251                           	psect	text21
  5252  0057C8                     __ptext21:
  5253                           	callstack 0
  5254  0057C8                     _digitalRead:
  5255                           	callstack 27
  5256  0057C8                     
  5257                           ;io.c: 40:     if(pin <8){
  5258  0057C8  BE02               	btfsc	(digitalRead@pin+1)^0,7,c
  5259  0057CA  EFF2  F02B         	goto	u2410
  5260  0057CE  5002               	movf	(digitalRead@pin+1)^0,w,c
  5261  0057D0  E107               	bnz	u2411
  5262  0057D2  0E08               	movlw	8
  5263  0057D4  5C01               	subwf	digitalRead@pin^0,w,c
  5264  0057D6  B0D8               	btfsc	status,0,c
  5265  0057D8  EFF0  F02B         	goto	u2411
  5266  0057DC  EFF2  F02B         	goto	u2410
  5267  0057E0                     u2411:
  5268  0057E0  EF06  F02C         	goto	l2600
  5269  0057E4                     u2410:
  5270  0057E4                     
  5271                           ;io.c: 41:         return ((PORTA) & (1<<(pin)));
  5272  0057E4  C001  F003         	movff	digitalRead@pin,??_digitalRead
  5273  0057E8  0E01               	movlw	1
  5274  0057EA  6E04               	movwf	(??_digitalRead+1)^0,c
  5275  0057EC  2A03               	incf	??_digitalRead^0,f,c
  5276  0057EE  EFFB  F02B         	goto	u2424
  5277  0057F2                     u2425:
  5278  0057F2  90D8               	bcf	status,0,c
  5279  0057F4  3604               	rlcf	(??_digitalRead+1)^0,f,c
  5280  0057F6                     u2424:
  5281  0057F6  2E03               	decfsz	??_digitalRead^0,f,c
  5282  0057F8  EFF9  F02B         	goto	u2425
  5283  0057FC  5004               	movf	(??_digitalRead+1)^0,w,c
  5284  0057FE  1480               	andwf	128,w,c	;volatile
  5285  005800  6E05               	movwf	(??_digitalRead+2)^0,c
  5286  005802  5005               	movf	(??_digitalRead+2)^0,w,c
  5287  005804  6E01               	movwf	?_digitalRead^0,c
  5288  005806  6A02               	clrf	(?_digitalRead+1)^0,c
  5289  005808  EF98  F02C         	goto	l230
  5290  00580C                     l2600:
  5291  00580C  BE02               	btfsc	(digitalRead@pin+1)^0,7,c
  5292  00580E  EF14  F02C         	goto	u2430
  5293  005812  5002               	movf	(digitalRead@pin+1)^0,w,c
  5294  005814  E107               	bnz	u2431
  5295  005816  0E10               	movlw	16
  5296  005818  5C01               	subwf	digitalRead@pin^0,w,c
  5297  00581A  B0D8               	btfsc	status,0,c
  5298  00581C  EF12  F02C         	goto	u2431
  5299  005820  EF14  F02C         	goto	u2430
  5300  005824                     u2431:
  5301  005824  EF2A  F02C         	goto	l2608
  5302  005828                     u2430:
  5303  005828                     
  5304                           ;io.c: 43:         return ((PORTB) & (1<<(pin-8)));
  5305  005828  C001  F003         	movff	digitalRead@pin,??_digitalRead
  5306  00582C  0EF8               	movlw	-8
  5307  00582E  2603               	addwf	??_digitalRead^0,f,c
  5308  005830  0E01               	movlw	1
  5309  005832  6E04               	movwf	(??_digitalRead+1)^0,c
  5310  005834  2A03               	incf	??_digitalRead^0,f,c
  5311  005836  EF1F  F02C         	goto	u2444
  5312  00583A                     u2445:
  5313  00583A  90D8               	bcf	status,0,c
  5314  00583C  3604               	rlcf	(??_digitalRead+1)^0,f,c
  5315  00583E                     u2444:
  5316  00583E  2E03               	decfsz	??_digitalRead^0,f,c
  5317  005840  EF1D  F02C         	goto	u2445
  5318  005844  5004               	movf	(??_digitalRead+1)^0,w,c
  5319  005846  1481               	andwf	129,w,c	;volatile
  5320  005848  6E05               	movwf	(??_digitalRead+2)^0,c
  5321  00584A  5005               	movf	(??_digitalRead+2)^0,w,c
  5322  00584C  6E01               	movwf	?_digitalRead^0,c
  5323  00584E  6A02               	clrf	(?_digitalRead+1)^0,c
  5324  005850  EF98  F02C         	goto	l230
  5325  005854                     l2608:
  5326  005854  BE02               	btfsc	(digitalRead@pin+1)^0,7,c
  5327  005856  EF38  F02C         	goto	u2450
  5328  00585A  5002               	movf	(digitalRead@pin+1)^0,w,c
  5329  00585C  E107               	bnz	u2451
  5330  00585E  0E18               	movlw	24
  5331  005860  5C01               	subwf	digitalRead@pin^0,w,c
  5332  005862  B0D8               	btfsc	status,0,c
  5333  005864  EF36  F02C         	goto	u2451
  5334  005868  EF38  F02C         	goto	u2450
  5335  00586C                     u2451:
  5336  00586C  EF4E  F02C         	goto	l2616
  5337  005870                     u2450:
  5338  005870                     
  5339                           ;io.c: 45:         return ((PORTC) & (1<<(pin-16)));
  5340  005870  C001  F003         	movff	digitalRead@pin,??_digitalRead
  5341  005874  0EF0               	movlw	-16
  5342  005876  2603               	addwf	??_digitalRead^0,f,c
  5343  005878  0E01               	movlw	1
  5344  00587A  6E04               	movwf	(??_digitalRead+1)^0,c
  5345  00587C  2A03               	incf	??_digitalRead^0,f,c
  5346  00587E  EF43  F02C         	goto	u2464
  5347  005882                     u2465:
  5348  005882  90D8               	bcf	status,0,c
  5349  005884  3604               	rlcf	(??_digitalRead+1)^0,f,c
  5350  005886                     u2464:
  5351  005886  2E03               	decfsz	??_digitalRead^0,f,c
  5352  005888  EF41  F02C         	goto	u2465
  5353  00588C  5004               	movf	(??_digitalRead+1)^0,w,c
  5354  00588E  1482               	andwf	130,w,c	;volatile
  5355  005890  6E05               	movwf	(??_digitalRead+2)^0,c
  5356  005892  5005               	movf	(??_digitalRead+2)^0,w,c
  5357  005894  6E01               	movwf	?_digitalRead^0,c
  5358  005896  6A02               	clrf	(?_digitalRead+1)^0,c
  5359  005898  EF98  F02C         	goto	l230
  5360  00589C                     l2616:
  5361  00589C  BE02               	btfsc	(digitalRead@pin+1)^0,7,c
  5362  00589E  EF5C  F02C         	goto	u2470
  5363  0058A2  5002               	movf	(digitalRead@pin+1)^0,w,c
  5364  0058A4  E107               	bnz	u2471
  5365  0058A6  0E20               	movlw	32
  5366  0058A8  5C01               	subwf	digitalRead@pin^0,w,c
  5367  0058AA  B0D8               	btfsc	status,0,c
  5368  0058AC  EF5A  F02C         	goto	u2471
  5369  0058B0  EF5C  F02C         	goto	u2470
  5370  0058B4                     u2471:
  5371  0058B4  EF72  F02C         	goto	l2624
  5372  0058B8                     u2470:
  5373  0058B8                     
  5374                           ;io.c: 47:         return ((PORTD) & (1<<(pin-24)));
  5375  0058B8  C001  F003         	movff	digitalRead@pin,??_digitalRead
  5376  0058BC  0EE8               	movlw	-24
  5377  0058BE  2603               	addwf	??_digitalRead^0,f,c
  5378  0058C0  0E01               	movlw	1
  5379  0058C2  6E04               	movwf	(??_digitalRead+1)^0,c
  5380  0058C4  2A03               	incf	??_digitalRead^0,f,c
  5381  0058C6  EF67  F02C         	goto	u2484
  5382  0058CA                     u2485:
  5383  0058CA  90D8               	bcf	status,0,c
  5384  0058CC  3604               	rlcf	(??_digitalRead+1)^0,f,c
  5385  0058CE                     u2484:
  5386  0058CE  2E03               	decfsz	??_digitalRead^0,f,c
  5387  0058D0  EF65  F02C         	goto	u2485
  5388  0058D4  5004               	movf	(??_digitalRead+1)^0,w,c
  5389  0058D6  1483               	andwf	131,w,c	;volatile
  5390  0058D8  6E05               	movwf	(??_digitalRead+2)^0,c
  5391  0058DA  5005               	movf	(??_digitalRead+2)^0,w,c
  5392  0058DC  6E01               	movwf	?_digitalRead^0,c
  5393  0058DE  6A02               	clrf	(?_digitalRead+1)^0,c
  5394  0058E0  EF98  F02C         	goto	l230
  5395  0058E4                     l2624:
  5396  0058E4  BE02               	btfsc	(digitalRead@pin+1)^0,7,c
  5397  0058E6  EF80  F02C         	goto	u2490
  5398  0058EA  5002               	movf	(digitalRead@pin+1)^0,w,c
  5399  0058EC  E107               	bnz	u2491
  5400  0058EE  0E28               	movlw	40
  5401  0058F0  5C01               	subwf	digitalRead@pin^0,w,c
  5402  0058F2  B0D8               	btfsc	status,0,c
  5403  0058F4  EF7E  F02C         	goto	u2491
  5404  0058F8  EF80  F02C         	goto	u2490
  5405  0058FC                     u2491:
  5406  0058FC  EF96  F02C         	goto	l235
  5407  005900                     u2490:
  5408  005900                     
  5409                           ;io.c: 49:         return ((PORTE) & (1<<(pin-32)));
  5410  005900  C001  F003         	movff	digitalRead@pin,??_digitalRead
  5411  005904  0EE0               	movlw	-32
  5412  005906  2603               	addwf	??_digitalRead^0,f,c
  5413  005908  0E01               	movlw	1
  5414  00590A  6E04               	movwf	(??_digitalRead+1)^0,c
  5415  00590C  2A03               	incf	??_digitalRead^0,f,c
  5416  00590E  EF8B  F02C         	goto	u2504
  5417  005912                     u2505:
  5418  005912  90D8               	bcf	status,0,c
  5419  005914  3604               	rlcf	(??_digitalRead+1)^0,f,c
  5420  005916                     u2504:
  5421  005916  2E03               	decfsz	??_digitalRead^0,f,c
  5422  005918  EF89  F02C         	goto	u2505
  5423  00591C  5004               	movf	(??_digitalRead+1)^0,w,c
  5424  00591E  1484               	andwf	132,w,c	;volatile
  5425  005920  6E05               	movwf	(??_digitalRead+2)^0,c
  5426  005922  5005               	movf	(??_digitalRead+2)^0,w,c
  5427  005924  6E01               	movwf	?_digitalRead^0,c
  5428  005926  6A02               	clrf	(?_digitalRead+1)^0,c
  5429  005928  EF98  F02C         	goto	l230
  5430  00592C                     l235:
  5431  00592C                     
  5432                           ;io.c: 51:     return -1;
  5433  00592C  6801               	setf	?_digitalRead^0,c
  5434  00592E  6802               	setf	(?_digitalRead+1)^0,c
  5435  005930                     l230:
  5436  005930  0012               	return		;funcret
  5437  005932                     __end_of_digitalRead:
  5438                           	callstack 0
  5439                           
  5440 ;; *************** function _atraso_ms *****************
  5441 ;; Defined at:
  5442 ;;		line 2 in file "atraso.c"
  5443 ;; Parameters:    Size  Location     Type
  5444 ;;  num             2    0[COMRAM] unsigned int 
  5445 ;; Auto vars:     Size  Location     Type
  5446 ;;  i               2    2[COMRAM] int 
  5447 ;;  k               1    5[COMRAM] volatile unsigned char 
  5448 ;;  j               1    4[COMRAM] volatile unsigned char 
  5449 ;; Return value:  Size  Location     Type
  5450 ;;                  1    wreg      void 
  5451 ;; Registers used:
  5452 ;;		wreg, status,2, status,0
  5453 ;; Tracked objects:
  5454 ;;		On entry : 0/0
  5455 ;;		On exit  : 0/0
  5456 ;;		Unchanged: 0/0
  5457 ;; Data sizes:     COMRAM   BANK0   BANK1   BANK2   BANK3   BANK4   BANK5
  5458 ;;      Params:         2       0       0       0       0       0       0
  5459 ;;      Locals:         4       0       0       0       0       0       0
  5460 ;;      Temps:          0       0       0       0       0       0       0
  5461 ;;      Totals:         6       0       0       0       0       0       0
  5462 ;;Total ram usage:        6 bytes
  5463 ;; Hardware stack levels used: 1
  5464 ;; This function calls:
  5465 ;;		Nothing
  5466 ;; This function is called by:
  5467 ;;		_serial_rx
  5468 ;;		_main
  5469 ;;		_opcaoInvalida
  5470 ;;		_abastecimentoBomba
  5471 ;; This function uses a non-reentrant model
  5472 ;;
  5473                           
  5474                           	psect	text22
  5475  004FCE                     __ptext22:
  5476                           	callstack 0
  5477  004FCE                     _atraso_ms:
  5478                           	callstack 28
  5479  004FCE                     
  5480                           ;atraso.c: 3:     volatile unsigned char j, k;;atraso.c: 4:     for (int i = 0; i < num;
      +                           i++) {
  5481  004FCE  0E00               	movlw	0
  5482  004FD0  6E04               	movwf	(atraso_ms@i+1)^0,c
  5483  004FD2  0E00               	movlw	0
  5484  004FD4  6E03               	movwf	atraso_ms@i^0,c
  5485  004FD6  EF0D  F028         	goto	l2672
  5486  004FDA                     l2650:
  5487                           
  5488                           ;atraso.c: 5:         for (j = 0; j < 41; j++) {
  5489  004FDA  0E00               	movlw	0
  5490  004FDC  6E05               	movwf	atraso_ms@j^0,c	;volatile
  5491  004FDE                     l2652:
  5492  004FDE  0E28               	movlw	40
  5493  004FE0  6405               	cpfsgt	atraso_ms@j^0,c	;volatile
  5494  004FE2  EFF5  F027         	goto	u2531
  5495  004FE6  EFF7  F027         	goto	u2530
  5496  004FEA                     u2531:
  5497  004FEA  EFF9  F027         	goto	l2656
  5498  004FEE                     u2530:
  5499  004FEE  EF0B  F028         	goto	l2670
  5500  004FF2                     l2656:
  5501                           
  5502                           ;atraso.c: 6:             for (k = 0; k < 3; k++);
  5503  004FF2  0E00               	movlw	0
  5504  004FF4  6E06               	movwf	atraso_ms@k^0,c	;volatile
  5505  004FF6                     l2658:
  5506  004FF6  0E02               	movlw	2
  5507  004FF8  6406               	cpfsgt	atraso_ms@k^0,c	;volatile
  5508  004FFA  EF01  F028         	goto	u2541
  5509  004FFE  EF03  F028         	goto	u2540
  5510  005002                     u2541:
  5511  005002  EF05  F028         	goto	l2662
  5512  005006                     u2540:
  5513  005006  EF08  F028         	goto	l2666
  5514  00500A                     l2662:
  5515  00500A  2A06               	incf	atraso_ms@k^0,f,c	;volatile
  5516  00500C  EFFB  F027         	goto	l2658
  5517  005010                     l2666:
  5518                           
  5519                           ;atraso.c: 7:         }
  5520  005010  2A05               	incf	atraso_ms@j^0,f,c	;volatile
  5521  005012  EFEF  F027         	goto	l2652
  5522  005016                     l2670:
  5523                           
  5524                           ;atraso.c: 9:     }
  5525  005016  4A03               	infsnz	atraso_ms@i^0,f,c
  5526  005018  2A04               	incf	(atraso_ms@i+1)^0,f,c
  5527  00501A                     l2672:
  5528  00501A  5001               	movf	atraso_ms@num^0,w,c
  5529  00501C  5C03               	subwf	atraso_ms@i^0,w,c
  5530  00501E  5002               	movf	(atraso_ms@num+1)^0,w,c
  5531  005020  5804               	subwfb	(atraso_ms@i+1)^0,w,c
  5532  005022  A0D8               	btfss	status,0,c
  5533  005024  EF16  F028         	goto	u2551
  5534  005028  EF18  F028         	goto	u2550
  5535  00502C                     u2551:
  5536  00502C  EFED  F027         	goto	l2650
  5537  005030                     u2550:
  5538  005030  0012               	return		;funcret
  5539  005032                     __end_of_atraso_ms:
  5540                           	callstack 0
  5541                           
  5542 ;; *************** function ___fltol *****************
  5543 ;; Defined at:
  5544 ;;		line 43 in file "C:\Program Files\Microchip\xc8\v2.32\pic\sources\c99\common\fltol.c"
  5545 ;; Parameters:    Size  Location     Type
  5546 ;;  f1              4   25[COMRAM] void 
  5547 ;; Auto vars:     Size  Location     Type
  5548 ;;  exp1            1   34[COMRAM] unsigned char 
  5549 ;;  sign1           1   33[COMRAM] unsigned char 
  5550 ;; Return value:  Size  Location     Type
  5551 ;;                  4   25[COMRAM] long 
  5552 ;; Registers used:
  5553 ;;		wreg, status,2, status,0
  5554 ;; Tracked objects:
  5555 ;;		On entry : 0/0
  5556 ;;		On exit  : 0/0
  5557 ;;		Unchanged: 0/0
  5558 ;; Data sizes:     COMRAM   BANK0   BANK1   BANK2   BANK3   BANK4   BANK5
  5559 ;;      Params:         4       0       0       0       0       0       0
  5560 ;;      Locals:         2       0       0       0       0       0       0
  5561 ;;      Temps:          4       0       0       0       0       0       0
  5562 ;;      Totals:        10       0       0       0       0       0       0
  5563 ;;Total ram usage:       10 bytes
  5564 ;; Hardware stack levels used: 1
  5565 ;; This function calls:
  5566 ;;		Nothing
  5567 ;; This function is called by:
  5568 ;;		_abastecimentoBomba
  5569 ;; This function uses a non-reentrant model
  5570 ;;
  5571                           
  5572                           	psect	text23
  5573  005584                     __ptext23:
  5574                           	callstack 0
  5575  005584                     ___fltol:
  5576                           	callstack 28
  5577  005584  341C               	rlcf	(___fltol@f1+2)^0,w,c
  5578  005586  341D               	rlcf	(___fltol@f1+3)^0,w,c
  5579  005588  6E23               	movwf	___fltol@exp1^0,c
  5580  00558A  5023               	movf	___fltol@exp1^0,w,c
  5581  00558C  A4D8               	btfss	status,2,c
  5582  00558E  EFCB  F02A         	goto	u3681
  5583  005592  EFCD  F02A         	goto	u3680
  5584  005596                     u3681:
  5585  005596  EFD7  F02A         	goto	l3258
  5586  00559A                     u3680:
  5587  00559A                     l3254:
  5588  00559A  0E00               	movlw	0
  5589  00559C  6E1A               	movwf	?___fltol^0,c
  5590  00559E  0E00               	movlw	0
  5591  0055A0  6E1B               	movwf	(?___fltol+1)^0,c
  5592  0055A2  0E00               	movlw	0
  5593  0055A4  6E1C               	movwf	(?___fltol+2)^0,c
  5594  0055A6  0E00               	movlw	0
  5595  0055A8  6E1D               	movwf	(?___fltol+3)^0,c
  5596  0055AA  EF44  F02B         	goto	l754
  5597  0055AE                     l3258:
  5598  0055AE  C01A  F01E         	movff	___fltol@f1,??___fltol
  5599  0055B2  C01B  F01F         	movff	___fltol@f1+1,??___fltol+1
  5600  0055B6  C01C  F020         	movff	___fltol@f1+2,??___fltol+2
  5601  0055BA  C01D  F021         	movff	___fltol@f1+3,??___fltol+3
  5602  0055BE  0E20               	movlw	32
  5603  0055C0  EFE7  F02A         	goto	u3690
  5604  0055C4                     u3695:
  5605  0055C4  90D8               	bcf	status,0,c
  5606  0055C6  3221               	rrcf	(??___fltol+3)^0,f,c
  5607  0055C8  3220               	rrcf	(??___fltol+2)^0,f,c
  5608  0055CA  321F               	rrcf	(??___fltol+1)^0,f,c
  5609  0055CC  321E               	rrcf	??___fltol^0,f,c
  5610  0055CE                     u3690:
  5611  0055CE  2EE8               	decfsz	wreg,f,c
  5612  0055D0  EFE2  F02A         	goto	u3695
  5613  0055D4  501E               	movf	??___fltol^0,w,c
  5614  0055D6  6E22               	movwf	___fltol@sign1^0,c
  5615  0055D8  8E1C               	bsf	(___fltol@f1+2)^0,7,c
  5616  0055DA  0EFF               	movlw	255
  5617  0055DC  161A               	andwf	___fltol@f1^0,f,c
  5618  0055DE  0EFF               	movlw	255
  5619  0055E0  161B               	andwf	(___fltol@f1+1)^0,f,c
  5620  0055E2  0EFF               	movlw	255
  5621  0055E4  161C               	andwf	(___fltol@f1+2)^0,f,c
  5622  0055E6  0E00               	movlw	0
  5623  0055E8  161D               	andwf	(___fltol@f1+3)^0,f,c
  5624  0055EA  0E96               	movlw	150
  5625  0055EC  5E23               	subwf	___fltol@exp1^0,f,c
  5626  0055EE  BE23               	btfsc	___fltol@exp1^0,7,c
  5627  0055F0  EFFE  F02A         	goto	u3700
  5628  0055F4  EFFC  F02A         	goto	u3701
  5629  0055F8                     u3701:
  5630  0055F8  EF14  F02B         	goto	l3278
  5631  0055FC                     u3700:
  5632  0055FC  5023               	movf	___fltol@exp1^0,w,c
  5633  0055FE  0A80               	xorlw	128
  5634  005600  0F97               	addlw	151
  5635  005602  B0D8               	btfsc	status,0,c
  5636  005604  EF06  F02B         	goto	u3711
  5637  005608  EF08  F02B         	goto	u3710
  5638  00560C                     u3711:
  5639  00560C  EF0A  F02B         	goto	l3274
  5640  005610                     u3710:
  5641  005610  EFCD  F02A         	goto	l3254
  5642  005614                     l3274:
  5643  005614  90D8               	bcf	status,0,c
  5644  005616  321D               	rrcf	(___fltol@f1+3)^0,f,c
  5645  005618  321C               	rrcf	(___fltol@f1+2)^0,f,c
  5646  00561A  321B               	rrcf	(___fltol@f1+1)^0,f,c
  5647  00561C  321A               	rrcf	___fltol@f1^0,f,c
  5648  00561E  3E23               	incfsz	___fltol@exp1^0,f,c
  5649  005620  EF0A  F02B         	goto	l3274
  5650  005624  EF2C  F02B         	goto	l3288
  5651  005628                     l3278:
  5652  005628  0E1F               	movlw	31
  5653  00562A  6423               	cpfsgt	___fltol@exp1^0,c
  5654  00562C  EF1A  F02B         	goto	u3721
  5655  005630  EF1C  F02B         	goto	u3720
  5656  005634                     u3721:
  5657  005634  EF24  F02B         	goto	l3286
  5658  005638                     u3720:
  5659  005638  EFCD  F02A         	goto	l3254
  5660  00563C                     l3284:
  5661  00563C  90D8               	bcf	status,0,c
  5662  00563E  361A               	rlcf	___fltol@f1^0,f,c
  5663  005640  361B               	rlcf	(___fltol@f1+1)^0,f,c
  5664  005642  361C               	rlcf	(___fltol@f1+2)^0,f,c
  5665  005644  361D               	rlcf	(___fltol@f1+3)^0,f,c
  5666  005646  0623               	decf	___fltol@exp1^0,f,c
  5667  005648                     l3286:
  5668  005648  5023               	movf	___fltol@exp1^0,w,c
  5669  00564A  A4D8               	btfss	status,2,c
  5670  00564C  EF2A  F02B         	goto	u3731
  5671  005650  EF2C  F02B         	goto	u3730
  5672  005654                     u3731:
  5673  005654  EF1E  F02B         	goto	l3284
  5674  005658                     u3730:
  5675  005658                     l3288:
  5676  005658  5022               	movf	___fltol@sign1^0,w,c
  5677  00565A  B4D8               	btfsc	status,2,c
  5678  00565C  EF32  F02B         	goto	u3741
  5679  005660  EF34  F02B         	goto	u3740
  5680  005664                     u3741:
  5681  005664  EF3C  F02B         	goto	l3292
  5682  005668                     u3740:
  5683  005668  1E1D               	comf	(___fltol@f1+3)^0,f,c
  5684  00566A  1E1C               	comf	(___fltol@f1+2)^0,f,c
  5685  00566C  1E1B               	comf	(___fltol@f1+1)^0,f,c
  5686  00566E  6C1A               	negf	___fltol@f1^0,c
  5687  005670  0E00               	movlw	0
  5688  005672  221B               	addwfc	(___fltol@f1+1)^0,f,c
  5689  005674  221C               	addwfc	(___fltol@f1+2)^0,f,c
  5690  005676  221D               	addwfc	(___fltol@f1+3)^0,f,c
  5691  005678                     l3292:
  5692  005678  C01A  F01A         	movff	___fltol@f1,?___fltol
  5693  00567C  C01B  F01B         	movff	___fltol@f1+1,?___fltol+1
  5694  005680  C01C  F01C         	movff	___fltol@f1+2,?___fltol+2
  5695  005684  C01D  F01D         	movff	___fltol@f1+3,?___fltol+3
  5696  005688                     l754:
  5697  005688  0012               	return		;funcret
  5698  00568A                     __end_of___fltol:
  5699                           	callstack 0
  5700                           
  5701 ;; *************** function ___flge *****************
  5702 ;; Defined at:
  5703 ;;		line 4 in file "C:\Program Files\Microchip\xc8\v2.32\pic\sources\c99\common\flge.c"
  5704 ;; Parameters:    Size  Location     Type
  5705 ;;  ff1             4    0[COMRAM] long 
  5706 ;;  ff2             4    4[COMRAM] long 
  5707 ;; Auto vars:     Size  Location     Type
  5708 ;;		None
  5709 ;; Return value:  Size  Location     Type
  5710 ;;		None               void
  5711 ;; Registers used:
  5712 ;;		wreg, status,2, status,0
  5713 ;; Tracked objects:
  5714 ;;		On entry : 0/0
  5715 ;;		On exit  : 0/0
  5716 ;;		Unchanged: 0/0
  5717 ;; Data sizes:     COMRAM   BANK0   BANK1   BANK2   BANK3   BANK4   BANK5
  5718 ;;      Params:         8       0       0       0       0       0       0
  5719 ;;      Locals:         0       0       0       0       0       0       0
  5720 ;;      Temps:          4       0       0       0       0       0       0
  5721 ;;      Totals:        12       0       0       0       0       0       0
  5722 ;;Total ram usage:       12 bytes
  5723 ;; Hardware stack levels used: 1
  5724 ;; This function calls:
  5725 ;;		Nothing
  5726 ;; This function is called by:
  5727 ;;		_abastecimentoBomba
  5728 ;; This function uses a non-reentrant model
  5729 ;;
  5730                           
  5731                           	psect	text24
  5732  005480                     __ptext24:
  5733                           	callstack 0
  5734  005480                     ___flge:
  5735                           	callstack 28
  5736  005480  0E00               	movlw	0
  5737  005482  1401               	andwf	___flge@ff1^0,w,c
  5738  005484  6E09               	movwf	??___flge^0,c
  5739  005486  0E00               	movlw	0
  5740  005488  1402               	andwf	(___flge@ff1+1)^0,w,c
  5741  00548A  6E0A               	movwf	(??___flge+1)^0,c
  5742  00548C  0E80               	movlw	128
  5743  00548E  1403               	andwf	(___flge@ff1+2)^0,w,c
  5744  005490  6E0B               	movwf	(??___flge+2)^0,c
  5745  005492  0E7F               	movlw	127
  5746  005494  1404               	andwf	(___flge@ff1+3)^0,w,c
  5747  005496  6E0C               	movwf	(??___flge+3)^0,c
  5748  005498  5009               	movf	??___flge^0,w,c
  5749  00549A  100A               	iorwf	(??___flge+1)^0,w,c
  5750  00549C  100B               	iorwf	(??___flge+2)^0,w,c
  5751  00549E  100C               	iorwf	(??___flge+3)^0,w,c
  5752  0054A0  A4D8               	btfss	status,2,c
  5753  0054A2  EF55  F02A         	goto	u3631
  5754  0054A6  EF57  F02A         	goto	u3630
  5755  0054AA                     u3631:
  5756  0054AA  EF5F  F02A         	goto	l3234
  5757  0054AE                     u3630:
  5758  0054AE  0E00               	movlw	0
  5759  0054B0  6E01               	movwf	___flge@ff1^0,c
  5760  0054B2  0E00               	movlw	0
  5761  0054B4  6E02               	movwf	(___flge@ff1+1)^0,c
  5762  0054B6  0E00               	movlw	0
  5763  0054B8  6E03               	movwf	(___flge@ff1+2)^0,c
  5764  0054BA  0E00               	movlw	0
  5765  0054BC  6E04               	movwf	(___flge@ff1+3)^0,c
  5766  0054BE                     l3234:
  5767  0054BE  0E00               	movlw	0
  5768  0054C0  1405               	andwf	___flge@ff2^0,w,c
  5769  0054C2  6E09               	movwf	??___flge^0,c
  5770  0054C4  0E00               	movlw	0
  5771  0054C6  1406               	andwf	(___flge@ff2+1)^0,w,c
  5772  0054C8  6E0A               	movwf	(??___flge+1)^0,c
  5773  0054CA  0E80               	movlw	128
  5774  0054CC  1407               	andwf	(___flge@ff2+2)^0,w,c
  5775  0054CE  6E0B               	movwf	(??___flge+2)^0,c
  5776  0054D0  0E7F               	movlw	127
  5777  0054D2  1408               	andwf	(___flge@ff2+3)^0,w,c
  5778  0054D4  6E0C               	movwf	(??___flge+3)^0,c
  5779  0054D6  5009               	movf	??___flge^0,w,c
  5780  0054D8  100A               	iorwf	(??___flge+1)^0,w,c
  5781  0054DA  100B               	iorwf	(??___flge+2)^0,w,c
  5782  0054DC  100C               	iorwf	(??___flge+3)^0,w,c
  5783  0054DE  A4D8               	btfss	status,2,c
  5784  0054E0  EF74  F02A         	goto	u3641
  5785  0054E4  EF76  F02A         	goto	u3640
  5786  0054E8                     u3641:
  5787  0054E8  EF7E  F02A         	goto	l3238
  5788  0054EC                     u3640:
  5789  0054EC  0E00               	movlw	0
  5790  0054EE  6E05               	movwf	___flge@ff2^0,c
  5791  0054F0  0E00               	movlw	0
  5792  0054F2  6E06               	movwf	(___flge@ff2+1)^0,c
  5793  0054F4  0E00               	movlw	0
  5794  0054F6  6E07               	movwf	(___flge@ff2+2)^0,c
  5795  0054F8  0E00               	movlw	0
  5796  0054FA  6E08               	movwf	(___flge@ff2+3)^0,c
  5797  0054FC                     l3238:
  5798  0054FC  AE04               	btfss	(___flge@ff1+3)^0,7,c
  5799  0054FE  EF83  F02A         	goto	u3651
  5800  005502  EF85  F02A         	goto	u3650
  5801  005506                     u3651:
  5802  005506  EF8E  F02A         	goto	l3242
  5803  00550A                     u3650:
  5804  00550A  6C01               	negf	___flge@ff1^0,c
  5805  00550C  1E02               	comf	(___flge@ff1+1)^0,f,c
  5806  00550E  B0D8               	btfsc	status,0,c
  5807  005510  2A02               	incf	(___flge@ff1+1)^0,f,c
  5808  005512  1E03               	comf	(___flge@ff1+2)^0,f,c
  5809  005514  B0D8               	btfsc	status,0,c
  5810  005516  2A03               	incf	(___flge@ff1+2)^0,f,c
  5811  005518  0E80               	movlw	128
  5812  00551A  5604               	subfwb	(___flge@ff1+3)^0,f,c
  5813  00551C                     l3242:
  5814  00551C  AE08               	btfss	(___flge@ff2+3)^0,7,c
  5815  00551E  EF93  F02A         	goto	u3661
  5816  005522  EF95  F02A         	goto	u3660
  5817  005526                     u3661:
  5818  005526  EF9E  F02A         	goto	l722
  5819  00552A                     u3660:
  5820  00552A  6C05               	negf	___flge@ff2^0,c
  5821  00552C  1E06               	comf	(___flge@ff2+1)^0,f,c
  5822  00552E  B0D8               	btfsc	status,0,c
  5823  005530  2A06               	incf	(___flge@ff2+1)^0,f,c
  5824  005532  1E07               	comf	(___flge@ff2+2)^0,f,c
  5825  005534  B0D8               	btfsc	status,0,c
  5826  005536  2A07               	incf	(___flge@ff2+2)^0,f,c
  5827  005538  0E80               	movlw	128
  5828  00553A  5608               	subfwb	(___flge@ff2+3)^0,f,c
  5829  00553C                     l722:
  5830  00553C  0E00               	movlw	0
  5831  00553E  1A01               	xorwf	___flge@ff1^0,f,c
  5832  005540  0E00               	movlw	0
  5833  005542  1A02               	xorwf	(___flge@ff1+1)^0,f,c
  5834  005544  0E00               	movlw	0
  5835  005546  1A03               	xorwf	(___flge@ff1+2)^0,f,c
  5836  005548  0E80               	movlw	128
  5837  00554A  1A04               	xorwf	(___flge@ff1+3)^0,f,c
  5838  00554C  0E00               	movlw	0
  5839  00554E  1A05               	xorwf	___flge@ff2^0,f,c
  5840  005550  0E00               	movlw	0
  5841  005552  1A06               	xorwf	(___flge@ff2+1)^0,f,c
  5842  005554  0E00               	movlw	0
  5843  005556  1A07               	xorwf	(___flge@ff2+2)^0,f,c
  5844  005558  0E80               	movlw	128
  5845  00555A  1A08               	xorwf	(___flge@ff2+3)^0,f,c
  5846  00555C  5005               	movf	___flge@ff2^0,w,c
  5847  00555E  5C01               	subwf	___flge@ff1^0,w,c
  5848  005560  5006               	movf	(___flge@ff2+1)^0,w,c
  5849  005562  5802               	subwfb	(___flge@ff1+1)^0,w,c
  5850  005564  5007               	movf	(___flge@ff2+2)^0,w,c
  5851  005566  5803               	subwfb	(___flge@ff1+2)^0,w,c
  5852  005568  5008               	movf	(___flge@ff2+3)^0,w,c
  5853  00556A  5804               	subwfb	(___flge@ff1+3)^0,w,c
  5854  00556C  B0D8               	btfsc	status,0,c
  5855  00556E  EFBB  F02A         	goto	u3671
  5856  005572  EFBD  F02A         	goto	u3670
  5857  005576                     u3671:
  5858  005576  EFC0  F02A         	goto	l3248
  5859  00557A                     u3670:
  5860  00557A  90D8               	bcf	status,0,c
  5861  00557C  EFC1  F02A         	goto	l727
  5862  005580                     l3248:
  5863  005580  80D8               	bsf	status,0,c
  5864  005582                     l727:
  5865  005582  0012               	return		;funcret
  5866  005584                     __end_of___flge:
  5867                           	callstack 0
  5868                           
  5869 ;; *************** function ___fldiv *****************
  5870 ;; Defined at:
  5871 ;;		line 11 in file "C:\Program Files\Microchip\xc8\v2.32\pic\sources\c99\common\sprcdiv.c"
  5872 ;; Parameters:    Size  Location     Type
  5873 ;;  b               4    0[COMRAM] long 
  5874 ;;  a               4    4[COMRAM] long 
  5875 ;; Auto vars:     Size  Location     Type
  5876 ;;  grs             4   19[COMRAM] unsigned long 
  5877 ;;  rem             4   12[COMRAM] unsigned long 
  5878 ;;  new_exp         2   17[COMRAM] short 
  5879 ;;  aexp            1   24[COMRAM] unsigned char 
  5880 ;;  bexp            1   23[COMRAM] unsigned char 
  5881 ;;  sign            1   16[COMRAM] unsigned char 
  5882 ;; Return value:  Size  Location     Type
  5883 ;;                  4    0[COMRAM] unsigned char 
  5884 ;; Registers used:
  5885 ;;		wreg, status,2, status,0
  5886 ;; Tracked objects:
  5887 ;;		On entry : 0/0
  5888 ;;		On exit  : 0/0
  5889 ;;		Unchanged: 0/0
  5890 ;; Data sizes:     COMRAM   BANK0   BANK1   BANK2   BANK3   BANK4   BANK5
  5891 ;;      Params:         8       0       0       0       0       0       0
  5892 ;;      Locals:        13       0       0       0       0       0       0
  5893 ;;      Temps:          4       0       0       0       0       0       0
  5894 ;;      Totals:        25       0       0       0       0       0       0
  5895 ;;Total ram usage:       25 bytes
  5896 ;; Hardware stack levels used: 1
  5897 ;; This function calls:
  5898 ;;		Nothing
  5899 ;; This function is called by:
  5900 ;;		_abastecimentoBomba
  5901 ;;		_selecaoCombustivel
  5902 ;; This function uses a non-reentrant model
  5903 ;;
  5904                           
  5905                           	psect	text25
  5906  0060EE                     __ptext25:
  5907                           	callstack 0
  5908  0060EE                     ___fldiv:
  5909                           	callstack 28
  5910  0060EE  5004               	movf	(___fldiv@b+3)^0,w,c
  5911  0060F0  0B80               	andlw	128
  5912  0060F2  6E11               	movwf	___fldiv@sign^0,c
  5913  0060F4  5004               	movf	(___fldiv@b+3)^0,w,c
  5914  0060F6  2404               	addwf	(___fldiv@b+3)^0,w,c
  5915  0060F8  6E18               	movwf	___fldiv@bexp^0,c
  5916  0060FA  AE03               	btfss	(___fldiv@b+2)^0,7,c
  5917  0060FC  EF82  F030         	goto	u3341
  5918  006100  EF84  F030         	goto	u3340
  5919  006104                     u3341:
  5920  006104  EF85  F030         	goto	l3062
  5921  006108                     u3340:
  5922  006108  8018               	bsf	___fldiv@bexp^0,0,c
  5923  00610A                     l3062:
  5924  00610A  5018               	movf	___fldiv@bexp^0,w,c
  5925  00610C  B4D8               	btfsc	status,2,c
  5926  00610E  EF8B  F030         	goto	u3351
  5927  006112  EF8D  F030         	goto	u3350
  5928  006116                     u3351:
  5929  006116  EFA2  F030         	goto	l3072
  5930  00611A                     u3350:
  5931  00611A  2818               	incf	___fldiv@bexp^0,w,c
  5932  00611C  A4D8               	btfss	status,2,c
  5933  00611E  EF93  F030         	goto	u3361
  5934  006122  EF95  F030         	goto	u3360
  5935  006126                     u3361:
  5936  006126  EF9D  F030         	goto	l3068
  5937  00612A                     u3360:
  5938  00612A  0E00               	movlw	0
  5939  00612C  6E01               	movwf	___fldiv@b^0,c
  5940  00612E  0E00               	movlw	0
  5941  006130  6E02               	movwf	(___fldiv@b+1)^0,c
  5942  006132  0E00               	movlw	0
  5943  006134  6E03               	movwf	(___fldiv@b+2)^0,c
  5944  006136  0E00               	movlw	0
  5945  006138  6E04               	movwf	(___fldiv@b+3)^0,c
  5946  00613A                     l3068:
  5947  00613A  8E03               	bsf	(___fldiv@b+2)^0,7,c
  5948  00613C  0E00               	movlw	0
  5949  00613E  6E04               	movwf	(___fldiv@b+3)^0,c
  5950  006140  EFAA  F030         	goto	l3074
  5951  006144                     l3072:
  5952  006144  0E00               	movlw	0
  5953  006146  6E01               	movwf	___fldiv@b^0,c
  5954  006148  0E00               	movlw	0
  5955  00614A  6E02               	movwf	(___fldiv@b+1)^0,c
  5956  00614C  0E00               	movlw	0
  5957  00614E  6E03               	movwf	(___fldiv@b+2)^0,c
  5958  006150  0E00               	movlw	0
  5959  006152  6E04               	movwf	(___fldiv@b+3)^0,c
  5960  006154                     l3074:
  5961  006154  5008               	movf	(___fldiv@a+3)^0,w,c
  5962  006156  0B80               	andlw	128
  5963  006158  1A11               	xorwf	___fldiv@sign^0,f,c
  5964  00615A  5008               	movf	(___fldiv@a+3)^0,w,c
  5965  00615C  2408               	addwf	(___fldiv@a+3)^0,w,c
  5966  00615E  6E19               	movwf	___fldiv@aexp^0,c
  5967  006160  AE07               	btfss	(___fldiv@a+2)^0,7,c
  5968  006162  EFB5  F030         	goto	u3371
  5969  006166  EFB7  F030         	goto	u3370
  5970  00616A                     u3371:
  5971  00616A  EFB8  F030         	goto	l3082
  5972  00616E                     u3370:
  5973  00616E  8019               	bsf	___fldiv@aexp^0,0,c
  5974  006170                     l3082:
  5975  006170  5019               	movf	___fldiv@aexp^0,w,c
  5976  006172  B4D8               	btfsc	status,2,c
  5977  006174  EFBE  F030         	goto	u3381
  5978  006178  EFC0  F030         	goto	u3380
  5979  00617C                     u3381:
  5980  00617C  EFD5  F030         	goto	l3092
  5981  006180                     u3380:
  5982  006180  2819               	incf	___fldiv@aexp^0,w,c
  5983  006182  A4D8               	btfss	status,2,c
  5984  006184  EFC6  F030         	goto	u3391
  5985  006188  EFC8  F030         	goto	u3390
  5986  00618C                     u3391:
  5987  00618C  EFD0  F030         	goto	l3088
  5988  006190                     u3390:
  5989  006190  0E00               	movlw	0
  5990  006192  6E05               	movwf	___fldiv@a^0,c
  5991  006194  0E00               	movlw	0
  5992  006196  6E06               	movwf	(___fldiv@a+1)^0,c
  5993  006198  0E00               	movlw	0
  5994  00619A  6E07               	movwf	(___fldiv@a+2)^0,c
  5995  00619C  0E00               	movlw	0
  5996  00619E  6E08               	movwf	(___fldiv@a+3)^0,c
  5997  0061A0                     l3088:
  5998  0061A0  8E07               	bsf	(___fldiv@a+2)^0,7,c
  5999  0061A2  0E00               	movlw	0
  6000  0061A4  6E08               	movwf	(___fldiv@a+3)^0,c
  6001  0061A6  EFDD  F030         	goto	l3094
  6002  0061AA                     l3092:
  6003  0061AA  0E00               	movlw	0
  6004  0061AC  6E05               	movwf	___fldiv@a^0,c
  6005  0061AE  0E00               	movlw	0
  6006  0061B0  6E06               	movwf	(___fldiv@a+1)^0,c
  6007  0061B2  0E00               	movlw	0
  6008  0061B4  6E07               	movwf	(___fldiv@a+2)^0,c
  6009  0061B6  0E00               	movlw	0
  6010  0061B8  6E08               	movwf	(___fldiv@a+3)^0,c
  6011  0061BA                     l3094:
  6012  0061BA  5005               	movf	___fldiv@a^0,w,c
  6013  0061BC  1006               	iorwf	(___fldiv@a+1)^0,w,c
  6014  0061BE  1007               	iorwf	(___fldiv@a+2)^0,w,c
  6015  0061C0  1008               	iorwf	(___fldiv@a+3)^0,w,c
  6016  0061C2  A4D8               	btfss	status,2,c
  6017  0061C4  EFE6  F030         	goto	u3401
  6018  0061C8  EFE8  F030         	goto	u3400
  6019  0061CC                     u3401:
  6020  0061CC  EF00  F031         	goto	l3106
  6021  0061D0                     u3400:
  6022  0061D0  0E00               	movlw	0
  6023  0061D2  6E01               	movwf	___fldiv@b^0,c
  6024  0061D4  0E00               	movlw	0
  6025  0061D6  6E02               	movwf	(___fldiv@b+1)^0,c
  6026  0061D8  0E00               	movlw	0
  6027  0061DA  6E03               	movwf	(___fldiv@b+2)^0,c
  6028  0061DC  0E00               	movlw	0
  6029  0061DE  6E04               	movwf	(___fldiv@b+3)^0,c
  6030  0061E0  0E80               	movlw	128
  6031  0061E2  1203               	iorwf	(___fldiv@b+2)^0,f,c
  6032  0061E4  0E7F               	movlw	127
  6033  0061E6  1204               	iorwf	(___fldiv@b+3)^0,f,c
  6034  0061E8                     l3100:
  6035  0061E8  5011               	movf	___fldiv@sign^0,w,c
  6036  0061EA  1204               	iorwf	(___fldiv@b+3)^0,f,c
  6037  0061EC  C001  F001         	movff	___fldiv@b,?___fldiv
  6038  0061F0  C002  F002         	movff	___fldiv@b+1,?___fldiv+1
  6039  0061F4  C003  F003         	movff	___fldiv@b+2,?___fldiv+2
  6040  0061F8  C004  F004         	movff	___fldiv@b+3,?___fldiv+3
  6041  0061FC  EF43  F032         	goto	l1039
  6042  006200                     l3106:
  6043  006200  5018               	movf	___fldiv@bexp^0,w,c
  6044  006202  A4D8               	btfss	status,2,c
  6045  006204  EF06  F031         	goto	u3411
  6046  006208  EF08  F031         	goto	u3410
  6047  00620C                     u3411:
  6048  00620C  EF12  F031         	goto	l3114
  6049  006210                     u3410:
  6050  006210  0E00               	movlw	0
  6051  006212  6E01               	movwf	?___fldiv^0,c
  6052  006214  0E00               	movlw	0
  6053  006216  6E02               	movwf	(?___fldiv+1)^0,c
  6054  006218  0E00               	movlw	0
  6055  00621A  6E03               	movwf	(?___fldiv+2)^0,c
  6056  00621C  0E00               	movlw	0
  6057  00621E  6E04               	movwf	(?___fldiv+3)^0,c
  6058  006220  EF43  F032         	goto	l1039
  6059  006224                     l3114:
  6060  006224  5019               	movf	___fldiv@aexp^0,w,c
  6061  006226  C018  F009         	movff	___fldiv@bexp,??___fldiv
  6062  00622A  6A0A               	clrf	(??___fldiv+1)^0,c
  6063  00622C  5E09               	subwf	??___fldiv^0,f,c
  6064  00622E  0E00               	movlw	0
  6065  006230  5A0A               	subwfb	(??___fldiv+1)^0,f,c
  6066  006232  0E7F               	movlw	127
  6067  006234  2409               	addwf	??___fldiv^0,w,c
  6068  006236  6E12               	movwf	___fldiv@new_exp^0,c
  6069  006238  0E00               	movlw	0
  6070  00623A  200A               	addwfc	(??___fldiv+1)^0,w,c
  6071  00623C  6E13               	movwf	(___fldiv@new_exp+1)^0,c
  6072  00623E  C001  F00D         	movff	___fldiv@b,___fldiv@rem
  6073  006242  C002  F00E         	movff	___fldiv@b+1,___fldiv@rem+1
  6074  006246  C003  F00F         	movff	___fldiv@b+2,___fldiv@rem+2
  6075  00624A  C004  F010         	movff	___fldiv@b+3,___fldiv@rem+3
  6076  00624E  0E00               	movlw	0
  6077  006250  6E01               	movwf	___fldiv@b^0,c
  6078  006252  0E00               	movlw	0
  6079  006254  6E02               	movwf	(___fldiv@b+1)^0,c
  6080  006256  0E00               	movlw	0
  6081  006258  6E03               	movwf	(___fldiv@b+2)^0,c
  6082  00625A  0E00               	movlw	0
  6083  00625C  6E04               	movwf	(___fldiv@b+3)^0,c
  6084  00625E  0E00               	movlw	0
  6085  006260  6E14               	movwf	___fldiv@grs^0,c
  6086  006262  0E00               	movlw	0
  6087  006264  6E15               	movwf	(___fldiv@grs+1)^0,c
  6088  006266  0E00               	movlw	0
  6089  006268  6E16               	movwf	(___fldiv@grs+2)^0,c
  6090  00626A  0E00               	movlw	0
  6091  00626C  6E17               	movwf	(___fldiv@grs+3)^0,c
  6092  00626E  0E00               	movlw	0
  6093  006270  6E19               	movwf	___fldiv@aexp^0,c
  6094  006272  EF73  F031         	goto	l1041
  6095  006276                     l3124:
  6096  006276  5019               	movf	___fldiv@aexp^0,w,c
  6097  006278  B4D8               	btfsc	status,2,c
  6098  00627A  EF41  F031         	goto	u3421
  6099  00627E  EF43  F031         	goto	u3420
  6100  006282                     u3421:
  6101  006282  EF5A  F031         	goto	l3132
  6102  006286                     u3420:
  6103  006286  90D8               	bcf	status,0,c
  6104  006288  360D               	rlcf	___fldiv@rem^0,f,c
  6105  00628A  360E               	rlcf	(___fldiv@rem+1)^0,f,c
  6106  00628C  360F               	rlcf	(___fldiv@rem+2)^0,f,c
  6107  00628E  3610               	rlcf	(___fldiv@rem+3)^0,f,c
  6108  006290  90D8               	bcf	status,0,c
  6109  006292  3601               	rlcf	___fldiv@b^0,f,c
  6110  006294  3602               	rlcf	(___fldiv@b+1)^0,f,c
  6111  006296  3603               	rlcf	(___fldiv@b+2)^0,f,c
  6112  006298  3604               	rlcf	(___fldiv@b+3)^0,f,c
  6113  00629A  AE17               	btfss	(___fldiv@grs+3)^0,7,c
  6114  00629C  EF52  F031         	goto	u3431
  6115  0062A0  EF54  F031         	goto	u3430
  6116  0062A4                     u3431:
  6117  0062A4  EF55  F031         	goto	l1044
  6118  0062A8                     u3430:
  6119  0062A8  8001               	bsf	___fldiv@b^0,0,c
  6120  0062AA                     l1044:
  6121  0062AA  90D8               	bcf	status,0,c
  6122  0062AC  3614               	rlcf	___fldiv@grs^0,f,c
  6123  0062AE  3615               	rlcf	(___fldiv@grs+1)^0,f,c
  6124  0062B0  3616               	rlcf	(___fldiv@grs+2)^0,f,c
  6125  0062B2  3617               	rlcf	(___fldiv@grs+3)^0,f,c
  6126  0062B4                     l3132:
  6127  0062B4  5005               	movf	___fldiv@a^0,w,c
  6128  0062B6  5C0D               	subwf	___fldiv@rem^0,w,c
  6129  0062B8  5006               	movf	(___fldiv@a+1)^0,w,c
  6130  0062BA  580E               	subwfb	(___fldiv@rem+1)^0,w,c
  6131  0062BC  5007               	movf	(___fldiv@a+2)^0,w,c
  6132  0062BE  580F               	subwfb	(___fldiv@rem+2)^0,w,c
  6133  0062C0  5008               	movf	(___fldiv@a+3)^0,w,c
  6134  0062C2  5810               	subwfb	(___fldiv@rem+3)^0,w,c
  6135  0062C4  A0D8               	btfss	status,0,c
  6136  0062C6  EF67  F031         	goto	u3441
  6137  0062CA  EF69  F031         	goto	u3440
  6138  0062CE                     u3441:
  6139  0062CE  EF72  F031         	goto	l3138
  6140  0062D2                     u3440:
  6141  0062D2  8C17               	bsf	(___fldiv@grs+3)^0,6,c
  6142  0062D4  5005               	movf	___fldiv@a^0,w,c
  6143  0062D6  5E0D               	subwf	___fldiv@rem^0,f,c
  6144  0062D8  5006               	movf	(___fldiv@a+1)^0,w,c
  6145  0062DA  5A0E               	subwfb	(___fldiv@rem+1)^0,f,c
  6146  0062DC  5007               	movf	(___fldiv@a+2)^0,w,c
  6147  0062DE  5A0F               	subwfb	(___fldiv@rem+2)^0,f,c
  6148  0062E0  5008               	movf	(___fldiv@a+3)^0,w,c
  6149  0062E2  5A10               	subwfb	(___fldiv@rem+3)^0,f,c
  6150  0062E4                     l3138:
  6151  0062E4  2A19               	incf	___fldiv@aexp^0,f,c
  6152  0062E6                     l1041:
  6153  0062E6  0E19               	movlw	25
  6154  0062E8  6419               	cpfsgt	___fldiv@aexp^0,c
  6155  0062EA  EF79  F031         	goto	u3451
  6156  0062EE  EF7B  F031         	goto	u3450
  6157  0062F2                     u3451:
  6158  0062F2  EF3B  F031         	goto	l3124
  6159  0062F6                     u3450:
  6160  0062F6  500D               	movf	___fldiv@rem^0,w,c
  6161  0062F8  100E               	iorwf	(___fldiv@rem+1)^0,w,c
  6162  0062FA  100F               	iorwf	(___fldiv@rem+2)^0,w,c
  6163  0062FC  1010               	iorwf	(___fldiv@rem+3)^0,w,c
  6164  0062FE  B4D8               	btfsc	status,2,c
  6165  006300  EF84  F031         	goto	u3461
  6166  006304  EF86  F031         	goto	u3460
  6167  006308                     u3461:
  6168  006308  EF9E  F031         	goto	l3150
  6169  00630C                     u3460:
  6170  00630C  8014               	bsf	___fldiv@grs^0,0,c
  6171  00630E  EF9E  F031         	goto	l3150
  6172  006312                     l3144:
  6173  006312  90D8               	bcf	status,0,c
  6174  006314  3601               	rlcf	___fldiv@b^0,f,c
  6175  006316  3602               	rlcf	(___fldiv@b+1)^0,f,c
  6176  006318  3603               	rlcf	(___fldiv@b+2)^0,f,c
  6177  00631A  3604               	rlcf	(___fldiv@b+3)^0,f,c
  6178  00631C  AE17               	btfss	(___fldiv@grs+3)^0,7,c
  6179  00631E  EF93  F031         	goto	u3471
  6180  006322  EF95  F031         	goto	u3470
  6181  006326                     u3471:
  6182  006326  EF96  F031         	goto	l1050
  6183  00632A                     u3470:
  6184  00632A  8001               	bsf	___fldiv@b^0,0,c
  6185  00632C                     l1050:
  6186  00632C  90D8               	bcf	status,0,c
  6187  00632E  3614               	rlcf	___fldiv@grs^0,f,c
  6188  006330  3615               	rlcf	(___fldiv@grs+1)^0,f,c
  6189  006332  3616               	rlcf	(___fldiv@grs+2)^0,f,c
  6190  006334  3617               	rlcf	(___fldiv@grs+3)^0,f,c
  6191  006336  0612               	decf	___fldiv@new_exp^0,f,c
  6192  006338  A0D8               	btfss	status,0,c
  6193  00633A  0613               	decf	(___fldiv@new_exp+1)^0,f,c
  6194  00633C                     l3150:
  6195  00633C  AE03               	btfss	(___fldiv@b+2)^0,7,c
  6196  00633E  EFA3  F031         	goto	u3481
  6197  006342  EFA5  F031         	goto	u3480
  6198  006346                     u3481:
  6199  006346  EF89  F031         	goto	l3144
  6200  00634A                     u3480:
  6201  00634A  0E00               	movlw	0
  6202  00634C  6E19               	movwf	___fldiv@aexp^0,c
  6203  00634E  AE17               	btfss	(___fldiv@grs+3)^0,7,c
  6204  006350  EFAC  F031         	goto	u3491
  6205  006354  EFAE  F031         	goto	u3490
  6206  006358                     u3491:
  6207  006358  EFD2  F031         	goto	l1052
  6208  00635C                     u3490:
  6209  00635C  0EFF               	movlw	255
  6210  00635E  1414               	andwf	___fldiv@grs^0,w,c
  6211  006360  6E09               	movwf	??___fldiv^0,c
  6212  006362  0EFF               	movlw	255
  6213  006364  1415               	andwf	(___fldiv@grs+1)^0,w,c
  6214  006366  6E0A               	movwf	(??___fldiv+1)^0,c
  6215  006368  0EFF               	movlw	255
  6216  00636A  1416               	andwf	(___fldiv@grs+2)^0,w,c
  6217  00636C  6E0B               	movwf	(??___fldiv+2)^0,c
  6218  00636E  0E7F               	movlw	127
  6219  006370  1417               	andwf	(___fldiv@grs+3)^0,w,c
  6220  006372  6E0C               	movwf	(??___fldiv+3)^0,c
  6221  006374  5009               	movf	??___fldiv^0,w,c
  6222  006376  100A               	iorwf	(??___fldiv+1)^0,w,c
  6223  006378  100B               	iorwf	(??___fldiv+2)^0,w,c
  6224  00637A  100C               	iorwf	(??___fldiv+3)^0,w,c
  6225  00637C  B4D8               	btfsc	status,2,c
  6226  00637E  EFC3  F031         	goto	u3501
  6227  006382  EFC5  F031         	goto	u3500
  6228  006386                     u3501:
  6229  006386  EFC9  F031         	goto	l1053
  6230  00638A                     u3500:
  6231  00638A                     l3158:
  6232  00638A  0E01               	movlw	1
  6233  00638C  6E19               	movwf	___fldiv@aexp^0,c
  6234  00638E  EFD2  F031         	goto	l1052
  6235  006392                     l1053:
  6236  006392  A001               	btfss	___fldiv@b^0,0,c
  6237  006394  EFCE  F031         	goto	u3511
  6238  006398  EFD0  F031         	goto	u3510
  6239  00639C                     u3511:
  6240  00639C  EFD2  F031         	goto	l1052
  6241  0063A0                     u3510:
  6242  0063A0  EFC5  F031         	goto	l3158
  6243  0063A4                     l1052:
  6244  0063A4  5019               	movf	___fldiv@aexp^0,w,c
  6245  0063A6  B4D8               	btfsc	status,2,c
  6246  0063A8  EFD8  F031         	goto	u3521
  6247  0063AC  EFDA  F031         	goto	u3520
  6248  0063B0                     u3521:
  6249  0063B0  EFFE  F031         	goto	l3170
  6250  0063B4                     u3520:
  6251  0063B4  0E01               	movlw	1
  6252  0063B6  2601               	addwf	___fldiv@b^0,f,c
  6253  0063B8  0E00               	movlw	0
  6254  0063BA  2202               	addwfc	(___fldiv@b+1)^0,f,c
  6255  0063BC  2203               	addwfc	(___fldiv@b+2)^0,f,c
  6256  0063BE  2204               	addwfc	(___fldiv@b+3)^0,f,c
  6257  0063C0  A004               	btfss	(___fldiv@b+3)^0,0,c
  6258  0063C2  EFE5  F031         	goto	u3531
  6259  0063C6  EFE7  F031         	goto	u3530
  6260  0063CA                     u3531:
  6261  0063CA  EFFE  F031         	goto	l3170
  6262  0063CE                     u3530:
  6263  0063CE  C001  F009         	movff	___fldiv@b,??___fldiv
  6264  0063D2  C002  F00A         	movff	___fldiv@b+1,??___fldiv+1
  6265  0063D6  C003  F00B         	movff	___fldiv@b+2,??___fldiv+2
  6266  0063DA  C004  F00C         	movff	___fldiv@b+3,??___fldiv+3
  6267  0063DE  340C               	rlcf	(??___fldiv+3)^0,w,c
  6268  0063E0  320C               	rrcf	(??___fldiv+3)^0,f,c
  6269  0063E2  320B               	rrcf	(??___fldiv+2)^0,f,c
  6270  0063E4  320A               	rrcf	(??___fldiv+1)^0,f,c
  6271  0063E6  3209               	rrcf	??___fldiv^0,f,c
  6272  0063E8  C009  F001         	movff	??___fldiv,___fldiv@b
  6273  0063EC  C00A  F002         	movff	??___fldiv+1,___fldiv@b+1
  6274  0063F0  C00B  F003         	movff	??___fldiv+2,___fldiv@b+2
  6275  0063F4  C00C  F004         	movff	??___fldiv+3,___fldiv@b+3
  6276  0063F8  4A12               	infsnz	___fldiv@new_exp^0,f,c
  6277  0063FA  2A13               	incf	(___fldiv@new_exp+1)^0,f,c
  6278  0063FC                     l3170:
  6279  0063FC  BE13               	btfsc	(___fldiv@new_exp+1)^0,7,c
  6280  0063FE  EF09  F032         	goto	u3541
  6281  006402  5013               	movf	(___fldiv@new_exp+1)^0,w,c
  6282  006404  E108               	bnz	u3540
  6283  006406  2812               	incf	___fldiv@new_exp^0,w,c
  6284  006408  A0D8               	btfss	status,0,c
  6285  00640A  EF09  F032         	goto	u3541
  6286  00640E  EF0B  F032         	goto	u3540
  6287  006412                     u3541:
  6288  006412  EF16  F032         	goto	l3174
  6289  006416                     u3540:
  6290  006416  0E00               	movlw	0
  6291  006418  6E13               	movwf	(___fldiv@new_exp+1)^0,c
  6292  00641A  6812               	setf	___fldiv@new_exp^0,c
  6293  00641C  0E00               	movlw	0
  6294  00641E  6E01               	movwf	___fldiv@b^0,c
  6295  006420  0E00               	movlw	0
  6296  006422  6E02               	movwf	(___fldiv@b+1)^0,c
  6297  006424  0E00               	movlw	0
  6298  006426  6E03               	movwf	(___fldiv@b+2)^0,c
  6299  006428  0E00               	movlw	0
  6300  00642A  6E04               	movwf	(___fldiv@b+3)^0,c
  6301  00642C                     l3174:
  6302  00642C  BE13               	btfsc	(___fldiv@new_exp+1)^0,7,c
  6303  00642E  EF23  F032         	goto	u3550
  6304  006432  5013               	movf	(___fldiv@new_exp+1)^0,w,c
  6305  006434  E106               	bnz	u3551
  6306  006436  0412               	decf	___fldiv@new_exp^0,w,c
  6307  006438  B0D8               	btfsc	status,0,c
  6308  00643A  EF21  F032         	goto	u3551
  6309  00643E  EF23  F032         	goto	u3550
  6310  006442                     u3551:
  6311  006442  EF31  F032         	goto	l3178
  6312  006446                     u3550:
  6313  006446  0E00               	movlw	0
  6314  006448  6E13               	movwf	(___fldiv@new_exp+1)^0,c
  6315  00644A  0E00               	movlw	0
  6316  00644C  6E12               	movwf	___fldiv@new_exp^0,c
  6317  00644E  0E00               	movlw	0
  6318  006450  6E01               	movwf	___fldiv@b^0,c
  6319  006452  0E00               	movlw	0
  6320  006454  6E02               	movwf	(___fldiv@b+1)^0,c
  6321  006456  0E00               	movlw	0
  6322  006458  6E03               	movwf	(___fldiv@b+2)^0,c
  6323  00645A  0E00               	movlw	0
  6324  00645C  6E04               	movwf	(___fldiv@b+3)^0,c
  6325  00645E  0E00               	movlw	0
  6326  006460  6E11               	movwf	___fldiv@sign^0,c
  6327  006462                     l3178:
  6328  006462  C012  F018         	movff	___fldiv@new_exp,___fldiv@bexp
  6329  006466  A018               	btfss	___fldiv@bexp^0,0,c
  6330  006468  EF38  F032         	goto	u3561
  6331  00646C  EF3A  F032         	goto	u3560
  6332  006470                     u3561:
  6333  006470  EF3D  F032         	goto	l3184
  6334  006474                     u3560:
  6335  006474  8E03               	bsf	(___fldiv@b+2)^0,7,c
  6336  006476  EF3E  F032         	goto	l3186
  6337  00647A                     l3184:
  6338  00647A  9E03               	bcf	(___fldiv@b+2)^0,7,c
  6339  00647C                     l3186:
  6340  00647C  90D8               	bcf	status,0,c
  6341  00647E  3018               	rrcf	___fldiv@bexp^0,w,c
  6342  006480  6E04               	movwf	(___fldiv@b+3)^0,c
  6343  006482  EFF4  F030         	goto	l3100
  6344  006486                     l1039:
  6345  006486  0012               	return		;funcret
  6346  006488                     __end_of___fldiv:
  6347                           	callstack 0
  6348                           
  6349 ;; *************** function ___fladd *****************
  6350 ;; Defined at:
  6351 ;;		line 10 in file "C:\Program Files\Microchip\xc8\v2.32\pic\sources\c99\common\sprcadd.c"
  6352 ;; Parameters:    Size  Location     Type
  6353 ;;  b               4   61[COMRAM] unsigned char 
  6354 ;;  a               4   65[COMRAM] unsigned char 
  6355 ;; Auto vars:     Size  Location     Type
  6356 ;;  grs             1   76[COMRAM] unsigned char 
  6357 ;;  bexp            1   75[COMRAM] unsigned char 
  6358 ;;  aexp            1   74[COMRAM] unsigned char 
  6359 ;;  signs           1   73[COMRAM] unsigned char 
  6360 ;; Return value:  Size  Location     Type
  6361 ;;                  4   61[COMRAM] unsigned char 
  6362 ;; Registers used:
  6363 ;;		wreg, status,2, status,0
  6364 ;; Tracked objects:
  6365 ;;		On entry : 0/0
  6366 ;;		On exit  : 0/0
  6367 ;;		Unchanged: 0/0
  6368 ;; Data sizes:     COMRAM   BANK0   BANK1   BANK2   BANK3   BANK4   BANK5
  6369 ;;      Params:         8       0       0       0       0       0       0
  6370 ;;      Locals:         4       0       0       0       0       0       0
  6371 ;;      Temps:          4       0       0       0       0       0       0
  6372 ;;      Totals:        16       0       0       0       0       0       0
  6373 ;;Total ram usage:       16 bytes
  6374 ;; Hardware stack levels used: 1
  6375 ;; This function calls:
  6376 ;;		Nothing
  6377 ;; This function is called by:
  6378 ;;		_abastecimentoBomba
  6379 ;;		_selecaoCombustivel
  6380 ;; This function uses a non-reentrant model
  6381 ;;
  6382                           
  6383                           	psect	text26
  6384  0068B2                     __ptext26:
  6385                           	callstack 0
  6386  0068B2                     ___fladd:
  6387                           	callstack 28
  6388  0068B2  5041               	movf	(___fladd@b+3)^0,w,c
  6389  0068B4  0B80               	andlw	128
  6390  0068B6  6E4A               	movwf	___fladd@signs^0,c
  6391  0068B8  5041               	movf	(___fladd@b+3)^0,w,c
  6392  0068BA  2441               	addwf	(___fladd@b+3)^0,w,c
  6393  0068BC  6E4C               	movwf	___fladd@bexp^0,c
  6394  0068BE  AE40               	btfss	(___fladd@b+2)^0,7,c
  6395  0068C0  EF64  F034         	goto	u2951
  6396  0068C4  EF66  F034         	goto	u2950
  6397  0068C8                     u2951:
  6398  0068C8  EF67  F034         	goto	l2860
  6399  0068CC                     u2950:
  6400  0068CC  804C               	bsf	___fladd@bexp^0,0,c
  6401  0068CE                     l2860:
  6402  0068CE  504C               	movf	___fladd@bexp^0,w,c
  6403  0068D0  B4D8               	btfsc	status,2,c
  6404  0068D2  EF6D  F034         	goto	u2961
  6405  0068D6  EF6F  F034         	goto	u2960
  6406  0068DA                     u2961:
  6407  0068DA  EF84  F034         	goto	l2870
  6408  0068DE                     u2960:
  6409  0068DE  284C               	incf	___fladd@bexp^0,w,c
  6410  0068E0  A4D8               	btfss	status,2,c
  6411  0068E2  EF75  F034         	goto	u2971
  6412  0068E6  EF77  F034         	goto	u2970
  6413  0068EA                     u2971:
  6414  0068EA  EF7F  F034         	goto	l2866
  6415  0068EE                     u2970:
  6416  0068EE  0E00               	movlw	0
  6417  0068F0  6E3E               	movwf	___fladd@b^0,c
  6418  0068F2  0E00               	movlw	0
  6419  0068F4  6E3F               	movwf	(___fladd@b+1)^0,c
  6420  0068F6  0E00               	movlw	0
  6421  0068F8  6E40               	movwf	(___fladd@b+2)^0,c
  6422  0068FA  0E00               	movlw	0
  6423  0068FC  6E41               	movwf	(___fladd@b+3)^0,c
  6424  0068FE                     l2866:
  6425  0068FE  8E40               	bsf	(___fladd@b+2)^0,7,c
  6426  006900  0E00               	movlw	0
  6427  006902  6E41               	movwf	(___fladd@b+3)^0,c
  6428  006904  EF8C  F034         	goto	l2872
  6429  006908                     l2870:
  6430  006908  0E00               	movlw	0
  6431  00690A  6E3E               	movwf	___fladd@b^0,c
  6432  00690C  0E00               	movlw	0
  6433  00690E  6E3F               	movwf	(___fladd@b+1)^0,c
  6434  006910  0E00               	movlw	0
  6435  006912  6E40               	movwf	(___fladd@b+2)^0,c
  6436  006914  0E00               	movlw	0
  6437  006916  6E41               	movwf	(___fladd@b+3)^0,c
  6438  006918                     l2872:
  6439  006918  5045               	movf	(___fladd@a+3)^0,w,c
  6440  00691A  0B80               	andlw	128
  6441  00691C  6E4B               	movwf	___fladd@aexp^0,c
  6442  00691E  504A               	movf	___fladd@signs^0,w,c
  6443  006920  184B               	xorwf	___fladd@aexp^0,w,c
  6444  006922  B4D8               	btfsc	status,2,c
  6445  006924  EF96  F034         	goto	u2981
  6446  006928  EF98  F034         	goto	u2980
  6447  00692C                     u2981:
  6448  00692C  EF99  F034         	goto	l2878
  6449  006930                     u2980:
  6450  006930  8C4A               	bsf	___fladd@signs^0,6,c
  6451  006932                     l2878:
  6452  006932  5045               	movf	(___fladd@a+3)^0,w,c
  6453  006934  2445               	addwf	(___fladd@a+3)^0,w,c
  6454  006936  6E4B               	movwf	___fladd@aexp^0,c
  6455  006938  AE44               	btfss	(___fladd@a+2)^0,7,c
  6456  00693A  EFA1  F034         	goto	u2991
  6457  00693E  EFA3  F034         	goto	u2990
  6458  006942                     u2991:
  6459  006942  EFA4  F034         	goto	l2884
  6460  006946                     u2990:
  6461  006946  804B               	bsf	___fladd@aexp^0,0,c
  6462  006948                     l2884:
  6463  006948  504B               	movf	___fladd@aexp^0,w,c
  6464  00694A  B4D8               	btfsc	status,2,c
  6465  00694C  EFAA  F034         	goto	u3001
  6466  006950  EFAC  F034         	goto	u3000
  6467  006954                     u3001:
  6468  006954  EFC1  F034         	goto	l2894
  6469  006958                     u3000:
  6470  006958  284B               	incf	___fladd@aexp^0,w,c
  6471  00695A  A4D8               	btfss	status,2,c
  6472  00695C  EFB2  F034         	goto	u3011
  6473  006960  EFB4  F034         	goto	u3010
  6474  006964                     u3011:
  6475  006964  EFBC  F034         	goto	l2890
  6476  006968                     u3010:
  6477  006968  0E00               	movlw	0
  6478  00696A  6E42               	movwf	___fladd@a^0,c
  6479  00696C  0E00               	movlw	0
  6480  00696E  6E43               	movwf	(___fladd@a+1)^0,c
  6481  006970  0E00               	movlw	0
  6482  006972  6E44               	movwf	(___fladd@a+2)^0,c
  6483  006974  0E00               	movlw	0
  6484  006976  6E45               	movwf	(___fladd@a+3)^0,c
  6485  006978                     l2890:
  6486  006978  8E44               	bsf	(___fladd@a+2)^0,7,c
  6487  00697A  0E00               	movlw	0
  6488  00697C  6E45               	movwf	(___fladd@a+3)^0,c
  6489  00697E  EFC9  F034         	goto	l2896
  6490  006982                     l2894:
  6491  006982  0E00               	movlw	0
  6492  006984  6E42               	movwf	___fladd@a^0,c
  6493  006986  0E00               	movlw	0
  6494  006988  6E43               	movwf	(___fladd@a+1)^0,c
  6495  00698A  0E00               	movlw	0
  6496  00698C  6E44               	movwf	(___fladd@a+2)^0,c
  6497  00698E  0E00               	movlw	0
  6498  006990  6E45               	movwf	(___fladd@a+3)^0,c
  6499  006992                     l2896:
  6500  006992  504C               	movf	___fladd@bexp^0,w,c
  6501  006994  5C4B               	subwf	___fladd@aexp^0,w,c
  6502  006996  B0D8               	btfsc	status,0,c
  6503  006998  EFD0  F034         	goto	u3021
  6504  00699C  EFD2  F034         	goto	u3020
  6505  0069A0                     u3021:
  6506  0069A0  EFF9  F034         	goto	l2932
  6507  0069A4                     u3020:
  6508  0069A4  AC4A               	btfss	___fladd@signs^0,6,c
  6509  0069A6  EFD7  F034         	goto	u3031
  6510  0069AA  EFD9  F034         	goto	u3030
  6511  0069AE                     u3031:
  6512  0069AE  EFDB  F034         	goto	l2902
  6513  0069B2                     u3030:
  6514  0069B2  0E80               	movlw	128
  6515  0069B4  1A4A               	xorwf	___fladd@signs^0,f,c
  6516  0069B6                     l2902:
  6517  0069B6  C04C  F04D         	movff	___fladd@bexp,___fladd@grs
  6518  0069BA  C04B  F04C         	movff	___fladd@aexp,___fladd@bexp
  6519  0069BE  C04D  F04B         	movff	___fladd@grs,___fladd@aexp
  6520  0069C2  C03E  F04D         	movff	___fladd@b,___fladd@grs
  6521  0069C6  C042  F03E         	movff	___fladd@a,___fladd@b
  6522  0069CA  C04D  F042         	movff	___fladd@grs,___fladd@a
  6523  0069CE  C03F  F04D         	movff	___fladd@b+1,___fladd@grs
  6524  0069D2  C043  F03F         	movff	___fladd@a+1,___fladd@b+1
  6525  0069D6  C04D  F043         	movff	___fladd@grs,___fladd@a+1
  6526  0069DA  C040  F04D         	movff	___fladd@b+2,___fladd@grs
  6527  0069DE  C044  F040         	movff	___fladd@a+2,___fladd@b+2
  6528  0069E2  C04D  F044         	movff	___fladd@grs,___fladd@a+2
  6529  0069E6  C041  F04D         	movff	___fladd@b+3,___fladd@grs
  6530  0069EA  C045  F041         	movff	___fladd@a+3,___fladd@b+3
  6531  0069EE  C04D  F045         	movff	___fladd@grs,___fladd@a+3
  6532  0069F2                     l2932:
  6533  0069F2  0E00               	movlw	0
  6534  0069F4  6E4D               	movwf	___fladd@grs^0,c
  6535  0069F6  504C               	movf	___fladd@bexp^0,w,c
  6536  0069F8  C04B  F046         	movff	___fladd@aexp,??___fladd
  6537  0069FC  6A47               	clrf	(??___fladd+1)^0,c
  6538  0069FE  5E46               	subwf	??___fladd^0,f,c
  6539  006A00  0E00               	movlw	0
  6540  006A02  5A47               	subwfb	(??___fladd+1)^0,f,c
  6541  006A04  BE47               	btfsc	(??___fladd+1)^0,7,c
  6542  006A06  EF0E  F035         	goto	u3041
  6543  006A0A  5047               	movf	(??___fladd+1)^0,w,c
  6544  006A0C  E109               	bnz	u3040
  6545  006A0E  0E1A               	movlw	26
  6546  006A10  5C46               	subwf	??___fladd^0,w,c
  6547  006A12  A0D8               	btfss	status,0,c
  6548  006A14  EF0E  F035         	goto	u3041
  6549  006A18  EF10  F035         	goto	u3040
  6550  006A1C                     u3041:
  6551  006A1C  EF47  F035         	goto	l986
  6552  006A20                     u3040:
  6553  006A20  503E               	movf	___fladd@b^0,w,c
  6554  006A22  103F               	iorwf	(___fladd@b+1)^0,w,c
  6555  006A24  1040               	iorwf	(___fladd@b+2)^0,w,c
  6556  006A26  1041               	iorwf	(___fladd@b+3)^0,w,c
  6557  006A28  A4D8               	btfss	status,2,c
  6558  006A2A  EF19  F035         	goto	u3051
  6559  006A2E  EF1C  F035         	goto	u3050
  6560  006A32                     u3051:
  6561  006A32  0E01               	movlw	1
  6562  006A34  EF1D  F035         	goto	u3060
  6563  006A38                     u3050:
  6564  006A38  0E00               	movlw	0
  6565  006A3A                     u3060:
  6566  006A3A  6E4D               	movwf	___fladd@grs^0,c
  6567  006A3C  0E00               	movlw	0
  6568  006A3E  6E3E               	movwf	___fladd@b^0,c
  6569  006A40  0E00               	movlw	0
  6570  006A42  6E3F               	movwf	(___fladd@b+1)^0,c
  6571  006A44  0E00               	movlw	0
  6572  006A46  6E40               	movwf	(___fladd@b+2)^0,c
  6573  006A48  0E00               	movlw	0
  6574  006A4A  6E41               	movwf	(___fladd@b+3)^0,c
  6575  006A4C  C04B  F04C         	movff	___fladd@aexp,___fladd@bexp
  6576  006A50  EF50  F035         	goto	l985
  6577  006A54                     l987:
  6578  006A54  A04D               	btfss	___fladd@grs^0,0,c
  6579  006A56  EF2F  F035         	goto	u3071
  6580  006A5A  EF31  F035         	goto	u3070
  6581  006A5E                     u3071:
  6582  006A5E  EF37  F035         	goto	l2944
  6583  006A62                     u3070:
  6584  006A62  90D8               	bcf	status,0,c
  6585  006A64  304D               	rrcf	___fladd@grs^0,w,c
  6586  006A66  0901               	iorlw	1
  6587  006A68  6E4D               	movwf	___fladd@grs^0,c
  6588  006A6A  EF39  F035         	goto	l2946
  6589  006A6E                     l2944:
  6590  006A6E  90D8               	bcf	status,0,c
  6591  006A70  324D               	rrcf	___fladd@grs^0,f,c
  6592  006A72                     l2946:
  6593  006A72  A03E               	btfss	___fladd@b^0,0,c
  6594  006A74  EF3E  F035         	goto	u3081
  6595  006A78  EF40  F035         	goto	u3080
  6596  006A7C                     u3081:
  6597  006A7C  EF41  F035         	goto	l2950
  6598  006A80                     u3080:
  6599  006A80  8E4D               	bsf	___fladd@grs^0,7,c
  6600  006A82                     l2950:
  6601  006A82  3441               	rlcf	(___fladd@b+3)^0,w,c
  6602  006A84  3241               	rrcf	(___fladd@b+3)^0,f,c
  6603  006A86  3240               	rrcf	(___fladd@b+2)^0,f,c
  6604  006A88  323F               	rrcf	(___fladd@b+1)^0,f,c
  6605  006A8A  323E               	rrcf	___fladd@b^0,f,c
  6606  006A8C  2A4C               	incf	___fladd@bexp^0,f,c
  6607  006A8E                     l986:
  6608  006A8E  504B               	movf	___fladd@aexp^0,w,c
  6609  006A90  5C4C               	subwf	___fladd@bexp^0,w,c
  6610  006A92  A0D8               	btfss	status,0,c
  6611  006A94  EF4E  F035         	goto	u3091
  6612  006A98  EF50  F035         	goto	u3090
  6613  006A9C                     u3091:
  6614  006A9C  EF2A  F035         	goto	l987
  6615  006AA0                     u3090:
  6616  006AA0                     l985:
  6617  006AA0  BC4A               	btfsc	___fladd@signs^0,6,c
  6618  006AA2  EF55  F035         	goto	u3101
  6619  006AA6  EF57  F035         	goto	u3100
  6620  006AAA                     u3101:
  6621  006AAA  EF97  F035         	goto	l2978
  6622  006AAE                     u3100:
  6623  006AAE  504C               	movf	___fladd@bexp^0,w,c
  6624  006AB0  A4D8               	btfss	status,2,c
  6625  006AB2  EF5D  F035         	goto	u3111
  6626  006AB6  EF5F  F035         	goto	u3110
  6627  006ABA                     u3111:
  6628  006ABA  EF69  F035         	goto	l2960
  6629  006ABE                     u3110:
  6630  006ABE  0E00               	movlw	0
  6631  006AC0  6E3E               	movwf	?___fladd^0,c
  6632  006AC2  0E00               	movlw	0
  6633  006AC4  6E3F               	movwf	(?___fladd+1)^0,c
  6634  006AC6  0E00               	movlw	0
  6635  006AC8  6E40               	movwf	(?___fladd+2)^0,c
  6636  006ACA  0E00               	movlw	0
  6637  006ACC  6E41               	movwf	(?___fladd+3)^0,c
  6638  006ACE  EFB8  F036         	goto	l994
  6639  006AD2                     l2960:
  6640  006AD2  5042               	movf	___fladd@a^0,w,c
  6641  006AD4  263E               	addwf	___fladd@b^0,f,c
  6642  006AD6  5043               	movf	(___fladd@a+1)^0,w,c
  6643  006AD8  223F               	addwfc	(___fladd@b+1)^0,f,c
  6644  006ADA  5044               	movf	(___fladd@a+2)^0,w,c
  6645  006ADC  2240               	addwfc	(___fladd@b+2)^0,f,c
  6646  006ADE  5045               	movf	(___fladd@a+3)^0,w,c
  6647  006AE0  2241               	addwfc	(___fladd@b+3)^0,f,c
  6648  006AE2  A041               	btfss	(___fladd@b+3)^0,0,c
  6649  006AE4  EF76  F035         	goto	u3121
  6650  006AE8  EF78  F035         	goto	u3120
  6651  006AEC                     u3121:
  6652  006AEC  EF24  F036         	goto	l3014
  6653  006AF0                     u3120:
  6654  006AF0  A04D               	btfss	___fladd@grs^0,0,c
  6655  006AF2  EF7D  F035         	goto	u3131
  6656  006AF6  EF7F  F035         	goto	u3130
  6657  006AFA                     u3131:
  6658  006AFA  EF85  F035         	goto	l2968
  6659  006AFE                     u3130:
  6660  006AFE  90D8               	bcf	status,0,c
  6661  006B00  304D               	rrcf	___fladd@grs^0,w,c
  6662  006B02  0901               	iorlw	1
  6663  006B04  6E4D               	movwf	___fladd@grs^0,c
  6664  006B06  EF87  F035         	goto	l2970
  6665  006B0A                     l2968:
  6666  006B0A  90D8               	bcf	status,0,c
  6667  006B0C  324D               	rrcf	___fladd@grs^0,f,c
  6668  006B0E                     l2970:
  6669  006B0E  A03E               	btfss	___fladd@b^0,0,c
  6670  006B10  EF8C  F035         	goto	u3141
  6671  006B14  EF8E  F035         	goto	u3140
  6672  006B18                     u3141:
  6673  006B18  EF8F  F035         	goto	l2974
  6674  006B1C                     u3140:
  6675  006B1C  8E4D               	bsf	___fladd@grs^0,7,c
  6676  006B1E                     l2974:
  6677  006B1E  3441               	rlcf	(___fladd@b+3)^0,w,c
  6678  006B20  3241               	rrcf	(___fladd@b+3)^0,f,c
  6679  006B22  3240               	rrcf	(___fladd@b+2)^0,f,c
  6680  006B24  323F               	rrcf	(___fladd@b+1)^0,f,c
  6681  006B26  323E               	rrcf	___fladd@b^0,f,c
  6682  006B28  2A4C               	incf	___fladd@bexp^0,f,c
  6683  006B2A  EF24  F036         	goto	l3014
  6684  006B2E                     l2978:
  6685  006B2E  5042               	movf	___fladd@a^0,w,c
  6686  006B30  5C3E               	subwf	___fladd@b^0,w,c
  6687  006B32  5043               	movf	(___fladd@a+1)^0,w,c
  6688  006B34  583F               	subwfb	(___fladd@b+1)^0,w,c
  6689  006B36  5044               	movf	(___fladd@a+2)^0,w,c
  6690  006B38  5840               	subwfb	(___fladd@b+2)^0,w,c
  6691  006B3A  5041               	movf	(___fladd@b+3)^0,w,c
  6692  006B3C  0A80               	xorlw	128
  6693  006B3E  6E46               	movwf	??___fladd^0,c
  6694  006B40  5045               	movf	(___fladd@a+3)^0,w,c
  6695  006B42  0A80               	xorlw	128
  6696  006B44  5846               	subwfb	??___fladd^0,w,c
  6697  006B46  B0D8               	btfsc	status,0,c
  6698  006B48  EFA8  F035         	goto	u3151
  6699  006B4C  EFAA  F035         	goto	u3150
  6700  006B50                     u3151:
  6701  006B50  EFD5  F035         	goto	l2988
  6702  006B54                     u3150:
  6703  006B54  503E               	movf	___fladd@b^0,w,c
  6704  006B56  5C42               	subwf	___fladd@a^0,w,c
  6705  006B58  6E46               	movwf	??___fladd^0,c
  6706  006B5A  503F               	movf	(___fladd@b+1)^0,w,c
  6707  006B5C  5843               	subwfb	(___fladd@a+1)^0,w,c
  6708  006B5E  6E47               	movwf	(??___fladd+1)^0,c
  6709  006B60  5040               	movf	(___fladd@b+2)^0,w,c
  6710  006B62  5844               	subwfb	(___fladd@a+2)^0,w,c
  6711  006B64  6E48               	movwf	(??___fladd+2)^0,c
  6712  006B66  5041               	movf	(___fladd@b+3)^0,w,c
  6713  006B68  5845               	subwfb	(___fladd@a+3)^0,w,c
  6714  006B6A  6E49               	movwf	(??___fladd+3)^0,c
  6715  006B6C  0EFF               	movlw	255
  6716  006B6E  2446               	addwf	??___fladd^0,w,c
  6717  006B70  6E3E               	movwf	___fladd@b^0,c
  6718  006B72  0EFF               	movlw	255
  6719  006B74  2047               	addwfc	(??___fladd+1)^0,w,c
  6720  006B76  6E3F               	movwf	(___fladd@b+1)^0,c
  6721  006B78  0EFF               	movlw	255
  6722  006B7A  2048               	addwfc	(??___fladd+2)^0,w,c
  6723  006B7C  6E40               	movwf	(___fladd@b+2)^0,c
  6724  006B7E  0EFF               	movlw	255
  6725  006B80  2049               	addwfc	(??___fladd+3)^0,w,c
  6726  006B82  6E41               	movwf	(___fladd@b+3)^0,c
  6727  006B84  0E80               	movlw	128
  6728  006B86  1A4A               	xorwf	___fladd@signs^0,f,c
  6729  006B88  6C4D               	negf	___fladd@grs^0,c
  6730  006B8A  504D               	movf	___fladd@grs^0,w,c
  6731  006B8C  A4D8               	btfss	status,2,c
  6732  006B8E  EFCB  F035         	goto	u3161
  6733  006B92  EFCD  F035         	goto	u3160
  6734  006B96                     u3161:
  6735  006B96  EFDD  F035         	goto	l1002
  6736  006B9A                     u3160:
  6737  006B9A  0E01               	movlw	1
  6738  006B9C  263E               	addwf	___fladd@b^0,f,c
  6739  006B9E  0E00               	movlw	0
  6740  006BA0  223F               	addwfc	(___fladd@b+1)^0,f,c
  6741  006BA2  2240               	addwfc	(___fladd@b+2)^0,f,c
  6742  006BA4  2241               	addwfc	(___fladd@b+3)^0,f,c
  6743  006BA6  EFDD  F035         	goto	l1002
  6744  006BAA                     l2988:
  6745  006BAA  5042               	movf	___fladd@a^0,w,c
  6746  006BAC  5E3E               	subwf	___fladd@b^0,f,c
  6747  006BAE  5043               	movf	(___fladd@a+1)^0,w,c
  6748  006BB0  5A3F               	subwfb	(___fladd@b+1)^0,f,c
  6749  006BB2  5044               	movf	(___fladd@a+2)^0,w,c
  6750  006BB4  5A40               	subwfb	(___fladd@b+2)^0,f,c
  6751  006BB6  5045               	movf	(___fladd@a+3)^0,w,c
  6752  006BB8  5A41               	subwfb	(___fladd@b+3)^0,f,c
  6753  006BBA                     l1002:
  6754  006BBA  503E               	movf	___fladd@b^0,w,c
  6755  006BBC  103F               	iorwf	(___fladd@b+1)^0,w,c
  6756  006BBE  1040               	iorwf	(___fladd@b+2)^0,w,c
  6757  006BC0  1041               	iorwf	(___fladd@b+3)^0,w,c
  6758  006BC2  A4D8               	btfss	status,2,c
  6759  006BC4  EFE6  F035         	goto	u3171
  6760  006BC8  EFE8  F035         	goto	u3170
  6761  006BCC                     u3171:
  6762  006BCC  EF1D  F036         	goto	l3012
  6763  006BD0                     u3170:
  6764  006BD0  504D               	movf	___fladd@grs^0,w,c
  6765  006BD2  A4D8               	btfss	status,2,c
  6766  006BD4  EFEE  F035         	goto	u3181
  6767  006BD8  EFF0  F035         	goto	u3180
  6768  006BDC                     u3181:
  6769  006BDC  EF1D  F036         	goto	l3012
  6770  006BE0                     u3180:
  6771  006BE0  0E00               	movlw	0
  6772  006BE2  6E3E               	movwf	?___fladd^0,c
  6773  006BE4  0E00               	movlw	0
  6774  006BE6  6E3F               	movwf	(?___fladd+1)^0,c
  6775  006BE8  0E00               	movlw	0
  6776  006BEA  6E40               	movwf	(?___fladd+2)^0,c
  6777  006BEC  0E00               	movlw	0
  6778  006BEE  6E41               	movwf	(?___fladd+3)^0,c
  6779  006BF0  EFB8  F036         	goto	l994
  6780  006BF4                     l2996:
  6781  006BF4  90D8               	bcf	status,0,c
  6782  006BF6  363E               	rlcf	___fladd@b^0,f,c
  6783  006BF8  363F               	rlcf	(___fladd@b+1)^0,f,c
  6784  006BFA  3640               	rlcf	(___fladd@b+2)^0,f,c
  6785  006BFC  3641               	rlcf	(___fladd@b+3)^0,f,c
  6786  006BFE  AE4D               	btfss	___fladd@grs^0,7,c
  6787  006C00  EF04  F036         	goto	u3191
  6788  006C04  EF06  F036         	goto	u3190
  6789  006C08                     u3191:
  6790  006C08  EF07  F036         	goto	l3002
  6791  006C0C                     u3190:
  6792  006C0C  803E               	bsf	___fladd@b^0,0,c
  6793  006C0E                     l3002:
  6794  006C0E  A04D               	btfss	___fladd@grs^0,0,c
  6795  006C10  EF0C  F036         	goto	u3201
  6796  006C14  EF0E  F036         	goto	u3200
  6797  006C18                     u3201:
  6798  006C18  EF12  F036         	goto	l3006
  6799  006C1C                     u3200:
  6800  006C1C  80D8               	bsf	status,0,c
  6801  006C1E  364D               	rlcf	___fladd@grs^0,f,c
  6802  006C20  EF14  F036         	goto	l3008
  6803  006C24                     l3006:
  6804  006C24  90D8               	bcf	status,0,c
  6805  006C26  364D               	rlcf	___fladd@grs^0,f,c
  6806  006C28                     l3008:
  6807  006C28  504C               	movf	___fladd@bexp^0,w,c
  6808  006C2A  B4D8               	btfsc	status,2,c
  6809  006C2C  EF1A  F036         	goto	u3211
  6810  006C30  EF1C  F036         	goto	u3210
  6811  006C34                     u3211:
  6812  006C34  EF1D  F036         	goto	l3012
  6813  006C38                     u3210:
  6814  006C38  064C               	decf	___fladd@bexp^0,f,c
  6815  006C3A                     l3012:
  6816  006C3A  AE40               	btfss	(___fladd@b+2)^0,7,c
  6817  006C3C  EF22  F036         	goto	u3221
  6818  006C40  EF24  F036         	goto	u3220
  6819  006C44                     u3221:
  6820  006C44  EFFA  F035         	goto	l2996
  6821  006C48                     u3220:
  6822  006C48                     l3014:
  6823  006C48  0E00               	movlw	0
  6824  006C4A  6E4B               	movwf	___fladd@aexp^0,c
  6825  006C4C  AE4D               	btfss	___fladd@grs^0,7,c
  6826  006C4E  EF2B  F036         	goto	u3231
  6827  006C52  EF2D  F036         	goto	u3230
  6828  006C56                     u3231:
  6829  006C56  EF45  F036         	goto	l1011
  6830  006C5A                     u3230:
  6831  006C5A  C04D  F046         	movff	___fladd@grs,??___fladd
  6832  006C5E  0E7F               	movlw	127
  6833  006C60  1646               	andwf	??___fladd^0,f,c
  6834  006C62  B4D8               	btfsc	status,2,c
  6835  006C64  EF36  F036         	goto	u3241
  6836  006C68  EF38  F036         	goto	u3240
  6837  006C6C                     u3241:
  6838  006C6C  EF3C  F036         	goto	l1012
  6839  006C70                     u3240:
  6840  006C70                     l3020:
  6841  006C70  0E01               	movlw	1
  6842  006C72  6E4B               	movwf	___fladd@aexp^0,c
  6843  006C74  EF45  F036         	goto	l1011
  6844  006C78                     l1012:
  6845  006C78  A03E               	btfss	___fladd@b^0,0,c
  6846  006C7A  EF41  F036         	goto	u3251
  6847  006C7E  EF43  F036         	goto	u3250
  6848  006C82                     u3251:
  6849  006C82  EF45  F036         	goto	l1011
  6850  006C86                     u3250:
  6851  006C86  EF38  F036         	goto	l3020
  6852  006C8A                     l1011:
  6853  006C8A  504B               	movf	___fladd@aexp^0,w,c
  6854  006C8C  B4D8               	btfsc	status,2,c
  6855  006C8E  EF4B  F036         	goto	u3261
  6856  006C92  EF4D  F036         	goto	u3260
  6857  006C96                     u3261:
  6858  006C96  EF78  F036         	goto	l3032
  6859  006C9A                     u3260:
  6860  006C9A  0E01               	movlw	1
  6861  006C9C  263E               	addwf	___fladd@b^0,f,c
  6862  006C9E  0E00               	movlw	0
  6863  006CA0  223F               	addwfc	(___fladd@b+1)^0,f,c
  6864  006CA2  2240               	addwfc	(___fladd@b+2)^0,f,c
  6865  006CA4  2241               	addwfc	(___fladd@b+3)^0,f,c
  6866  006CA6  A041               	btfss	(___fladd@b+3)^0,0,c
  6867  006CA8  EF58  F036         	goto	u3271
  6868  006CAC  EF5A  F036         	goto	u3270
  6869  006CB0                     u3271:
  6870  006CB0  EF78  F036         	goto	l3032
  6871  006CB4                     u3270:
  6872  006CB4  C03E  F046         	movff	___fladd@b,??___fladd
  6873  006CB8  C03F  F047         	movff	___fladd@b+1,??___fladd+1
  6874  006CBC  C040  F048         	movff	___fladd@b+2,??___fladd+2
  6875  006CC0  C041  F049         	movff	___fladd@b+3,??___fladd+3
  6876  006CC4  3449               	rlcf	(??___fladd+3)^0,w,c
  6877  006CC6  3249               	rrcf	(??___fladd+3)^0,f,c
  6878  006CC8  3248               	rrcf	(??___fladd+2)^0,f,c
  6879  006CCA  3247               	rrcf	(??___fladd+1)^0,f,c
  6880  006CCC  3246               	rrcf	??___fladd^0,f,c
  6881  006CCE  C046  F03E         	movff	??___fladd,___fladd@b
  6882  006CD2  C047  F03F         	movff	??___fladd+1,___fladd@b+1
  6883  006CD6  C048  F040         	movff	??___fladd+2,___fladd@b+2
  6884  006CDA  C049  F041         	movff	??___fladd+3,___fladd@b+3
  6885  006CDE  284C               	incf	___fladd@bexp^0,w,c
  6886  006CE0  B4D8               	btfsc	status,2,c
  6887  006CE2  EF75  F036         	goto	u3281
  6888  006CE6  EF77  F036         	goto	u3280
  6889  006CEA                     u3281:
  6890  006CEA  EF78  F036         	goto	l3032
  6891  006CEE                     u3280:
  6892  006CEE  2A4C               	incf	___fladd@bexp^0,f,c
  6893  006CF0                     l3032:
  6894  006CF0  284C               	incf	___fladd@bexp^0,w,c
  6895  006CF2  B4D8               	btfsc	status,2,c
  6896  006CF4  EF7E  F036         	goto	u3291
  6897  006CF8  EF80  F036         	goto	u3290
  6898  006CFC                     u3291:
  6899  006CFC  EF88  F036         	goto	l3036
  6900  006D00                     u3290:
  6901  006D00  504C               	movf	___fladd@bexp^0,w,c
  6902  006D02  A4D8               	btfss	status,2,c
  6903  006D04  EF86  F036         	goto	u3301
  6904  006D08  EF88  F036         	goto	u3300
  6905  006D0C                     u3301:
  6906  006D0C  EF9A  F036         	goto	l3040
  6907  006D10                     u3300:
  6908  006D10                     l3036:
  6909  006D10  0E00               	movlw	0
  6910  006D12  6E3E               	movwf	___fladd@b^0,c
  6911  006D14  0E00               	movlw	0
  6912  006D16  6E3F               	movwf	(___fladd@b+1)^0,c
  6913  006D18  0E00               	movlw	0
  6914  006D1A  6E40               	movwf	(___fladd@b+2)^0,c
  6915  006D1C  0E00               	movlw	0
  6916  006D1E  6E41               	movwf	(___fladd@b+3)^0,c
  6917  006D20  504C               	movf	___fladd@bexp^0,w,c
  6918  006D22  A4D8               	btfss	status,2,c
  6919  006D24  EF96  F036         	goto	u3311
  6920  006D28  EF98  F036         	goto	u3310
  6921  006D2C                     u3311:
  6922  006D2C  EF9A  F036         	goto	l3040
  6923  006D30                     u3310:
  6924  006D30  0E00               	movlw	0
  6925  006D32  6E4A               	movwf	___fladd@signs^0,c
  6926  006D34                     l3040:
  6927  006D34  A04C               	btfss	___fladd@bexp^0,0,c
  6928  006D36  EF9F  F036         	goto	u3321
  6929  006D3A  EFA1  F036         	goto	u3320
  6930  006D3E                     u3321:
  6931  006D3E  EFA4  F036         	goto	l3044
  6932  006D42                     u3320:
  6933  006D42  8E40               	bsf	(___fladd@b+2)^0,7,c
  6934  006D44  EFA5  F036         	goto	l3046
  6935  006D48                     l3044:
  6936  006D48  9E40               	bcf	(___fladd@b+2)^0,7,c
  6937  006D4A                     l3046:
  6938  006D4A  90D8               	bcf	status,0,c
  6939  006D4C  304C               	rrcf	___fladd@bexp^0,w,c
  6940  006D4E  6E41               	movwf	(___fladd@b+3)^0,c
  6941  006D50  AE4A               	btfss	___fladd@signs^0,7,c
  6942  006D52  EFAD  F036         	goto	u3331
  6943  006D56  EFAF  F036         	goto	u3330
  6944  006D5A                     u3331:
  6945  006D5A  EFB0  F036         	goto	l3052
  6946  006D5E                     u3330:
  6947  006D5E  8E41               	bsf	(___fladd@b+3)^0,7,c
  6948  006D60                     l3052:
  6949  006D60  C03E  F03E         	movff	___fladd@b,?___fladd
  6950  006D64  C03F  F03F         	movff	___fladd@b+1,?___fladd+1
  6951  006D68  C040  F040         	movff	___fladd@b+2,?___fladd+2
  6952  006D6C  C041  F041         	movff	___fladd@b+3,?___fladd+3
  6953  006D70                     l994:
  6954  006D70  0012               	return		;funcret
  6955  006D72                     __end_of___fladd:
  6956                           	callstack 0
  6957                           
  6958 ;; *************** function ___awmod *****************
  6959 ;; Defined at:
  6960 ;;		line 7 in file "C:\Program Files\Microchip\xc8\v2.32\pic\sources\c99\common\awmod.c"
  6961 ;; Parameters:    Size  Location     Type
  6962 ;;  dividend        2   35[COMRAM] int 
  6963 ;;  divisor         2   37[COMRAM] int 
  6964 ;; Auto vars:     Size  Location     Type
  6965 ;;  sign            1   40[COMRAM] unsigned char 
  6966 ;;  counter         1   39[COMRAM] unsigned char 
  6967 ;; Return value:  Size  Location     Type
  6968 ;;                  2   35[COMRAM] int 
  6969 ;; Registers used:
  6970 ;;		wreg, status,2, status,0
  6971 ;; Tracked objects:
  6972 ;;		On entry : 0/0
  6973 ;;		On exit  : 0/0
  6974 ;;		Unchanged: 0/0
  6975 ;; Data sizes:     COMRAM   BANK0   BANK1   BANK2   BANK3   BANK4   BANK5
  6976 ;;      Params:         4       0       0       0       0       0       0
  6977 ;;      Locals:         2       0       0       0       0       0       0
  6978 ;;      Temps:          0       0       0       0       0       0       0
  6979 ;;      Totals:         6       0       0       0       0       0       0
  6980 ;;Total ram usage:        6 bytes
  6981 ;; Hardware stack levels used: 1
  6982 ;; This function calls:
  6983 ;;		Nothing
  6984 ;; This function is called by:
  6985 ;;		_abastecimentoBomba
  6986 ;;		_selecaoCombustivel
  6987 ;;		_lcdNumber
  6988 ;; This function uses a non-reentrant model
  6989 ;;
  6990                           
  6991                           	psect	text27
  6992  0051AE                     __ptext27:
  6993                           	callstack 0
  6994  0051AE                     ___awmod:
  6995                           	callstack 28
  6996  0051AE  0E00               	movlw	0
  6997  0051B0  6E29               	movwf	___awmod@sign^0,c
  6998  0051B2  BE25               	btfsc	(___awmod@dividend+1)^0,7,c
  6999  0051B4  EFE0  F028         	goto	u3570
  7000  0051B8  EFDE  F028         	goto	u3571
  7001  0051BC                     u3571:
  7002  0051BC  EFE6  F028         	goto	l3202
  7003  0051C0                     u3570:
  7004  0051C0  6C24               	negf	___awmod@dividend^0,c
  7005  0051C2  1E25               	comf	(___awmod@dividend+1)^0,f,c
  7006  0051C4  B0D8               	btfsc	status,0,c
  7007  0051C6  2A25               	incf	(___awmod@dividend+1)^0,f,c
  7008  0051C8  0E01               	movlw	1
  7009  0051CA  6E29               	movwf	___awmod@sign^0,c
  7010  0051CC                     l3202:
  7011  0051CC  BE27               	btfsc	(___awmod@divisor+1)^0,7,c
  7012  0051CE  EFED  F028         	goto	u3580
  7013  0051D2  EFEB  F028         	goto	u3581
  7014  0051D6                     u3581:
  7015  0051D6  EFF1  F028         	goto	l3206
  7016  0051DA                     u3580:
  7017  0051DA  6C26               	negf	___awmod@divisor^0,c
  7018  0051DC  1E27               	comf	(___awmod@divisor+1)^0,f,c
  7019  0051DE  B0D8               	btfsc	status,0,c
  7020  0051E0  2A27               	incf	(___awmod@divisor+1)^0,f,c
  7021  0051E2                     l3206:
  7022  0051E2  5026               	movf	___awmod@divisor^0,w,c
  7023  0051E4  1027               	iorwf	(___awmod@divisor+1)^0,w,c
  7024  0051E6  B4D8               	btfsc	status,2,c
  7025  0051E8  EFF8  F028         	goto	u3591
  7026  0051EC  EFFA  F028         	goto	u3590
  7027  0051F0                     u3591:
  7028  0051F0  EF1E  F029         	goto	l3222
  7029  0051F4                     u3590:
  7030  0051F4  0E01               	movlw	1
  7031  0051F6  6E28               	movwf	___awmod@counter^0,c
  7032  0051F8  EF02  F029         	goto	l3212
  7033  0051FC                     l3210:
  7034  0051FC  90D8               	bcf	status,0,c
  7035  0051FE  3626               	rlcf	___awmod@divisor^0,f,c
  7036  005200  3627               	rlcf	(___awmod@divisor+1)^0,f,c
  7037  005202  2A28               	incf	___awmod@counter^0,f,c
  7038  005204                     l3212:
  7039  005204  AE27               	btfss	(___awmod@divisor+1)^0,7,c
  7040  005206  EF07  F029         	goto	u3601
  7041  00520A  EF09  F029         	goto	u3600
  7042  00520E                     u3601:
  7043  00520E  EFFE  F028         	goto	l3210
  7044  005212                     u3600:
  7045  005212                     l3214:
  7046  005212  5026               	movf	___awmod@divisor^0,w,c
  7047  005214  5C24               	subwf	___awmod@dividend^0,w,c
  7048  005216  5027               	movf	(___awmod@divisor+1)^0,w,c
  7049  005218  5825               	subwfb	(___awmod@dividend+1)^0,w,c
  7050  00521A  A0D8               	btfss	status,0,c
  7051  00521C  EF12  F029         	goto	u3611
  7052  005220  EF14  F029         	goto	u3610
  7053  005224                     u3611:
  7054  005224  EF18  F029         	goto	l3218
  7055  005228                     u3610:
  7056  005228  5026               	movf	___awmod@divisor^0,w,c
  7057  00522A  5E24               	subwf	___awmod@dividend^0,f,c
  7058  00522C  5027               	movf	(___awmod@divisor+1)^0,w,c
  7059  00522E  5A25               	subwfb	(___awmod@dividend+1)^0,f,c
  7060  005230                     l3218:
  7061  005230  90D8               	bcf	status,0,c
  7062  005232  3227               	rrcf	(___awmod@divisor+1)^0,f,c
  7063  005234  3226               	rrcf	___awmod@divisor^0,f,c
  7064  005236  2E28               	decfsz	___awmod@counter^0,f,c
  7065  005238  EF09  F029         	goto	l3214
  7066  00523C                     l3222:
  7067  00523C  5029               	movf	___awmod@sign^0,w,c
  7068  00523E  B4D8               	btfsc	status,2,c
  7069  005240  EF24  F029         	goto	u3621
  7070  005244  EF26  F029         	goto	u3620
  7071  005248                     u3621:
  7072  005248  EF2A  F029         	goto	l3226
  7073  00524C                     u3620:
  7074  00524C  6C24               	negf	___awmod@dividend^0,c
  7075  00524E  1E25               	comf	(___awmod@dividend+1)^0,f,c
  7076  005250  B0D8               	btfsc	status,0,c
  7077  005252  2A25               	incf	(___awmod@dividend+1)^0,f,c
  7078  005254                     l3226:
  7079  005254  C024  F024         	movff	___awmod@dividend,?___awmod
  7080  005258  C025  F025         	movff	___awmod@dividend+1,?___awmod+1
  7081  00525C  0012               	return		;funcret
  7082  00525E                     __end_of___awmod:
  7083                           	callstack 0
  7084                           
  7085 ;; *************** function ___xxtofl *****************
  7086 ;; Defined at:
  7087 ;;		line 10 in file "C:\Program Files\Microchip\xc8\v2.32\pic\sources\c99\common\xxtofl.c"
  7088 ;; Parameters:    Size  Location     Type
  7089 ;;  sign            1    wreg     unsigned char 
  7090 ;;  val             4   47[COMRAM] long 
  7091 ;; Auto vars:     Size  Location     Type
  7092 ;;  sign            1   55[COMRAM] unsigned char 
  7093 ;;  arg             4   57[COMRAM] unsigned long 
  7094 ;;  exp             1   56[COMRAM] unsigned char 
  7095 ;; Return value:  Size  Location     Type
  7096 ;;                  4   47[COMRAM] unsigned char 
  7097 ;; Registers used:
  7098 ;;		wreg, status,2, status,0
  7099 ;; Tracked objects:
  7100 ;;		On entry : 0/0
  7101 ;;		On exit  : 0/0
  7102 ;;		Unchanged: 0/0
  7103 ;; Data sizes:     COMRAM   BANK0   BANK1   BANK2   BANK3   BANK4   BANK5
  7104 ;;      Params:         4       0       0       0       0       0       0
  7105 ;;      Locals:         6       0       0       0       0       0       0
  7106 ;;      Temps:          4       0       0       0       0       0       0
  7107 ;;      Totals:        14       0       0       0       0       0       0
  7108 ;;Total ram usage:       14 bytes
  7109 ;; Hardware stack levels used: 1
  7110 ;; This function calls:
  7111 ;;		Nothing
  7112 ;; This function is called by:
  7113 ;;		_selecaoCombustivel
  7114 ;; This function uses a non-reentrant model
  7115 ;;
  7116                           
  7117                           	psect	text28
  7118  005A9E                     __ptext28:
  7119                           	callstack 0
  7120  005A9E                     ___xxtofl:
  7121                           	callstack 29
  7122                           
  7123                           ;incstack = 0
  7124                           ;___xxtofl@sign stored from wreg
  7125  005A9E  6E38               	movwf	___xxtofl@sign^0,c
  7126  005AA0  5038               	movf	___xxtofl@sign^0,w,c
  7127  005AA2  B4D8               	btfsc	status,2,c
  7128  005AA4  EF56  F02D         	goto	u4061
  7129  005AA8  EF58  F02D         	goto	u4060
  7130  005AAC                     u4061:
  7131  005AAC  EF7A  F02D         	goto	l1112
  7132  005AB0                     u4060:
  7133  005AB0  BE33               	btfsc	(___xxtofl@val+3)^0,7,c
  7134  005AB2  EF5F  F02D         	goto	u4070
  7135  005AB6  EF5D  F02D         	goto	u4071
  7136  005ABA                     u4071:
  7137  005ABA  EF7A  F02D         	goto	l1112
  7138  005ABE                     u4070:
  7139  005ABE  C030  F034         	movff	___xxtofl@val,??___xxtofl
  7140  005AC2  C031  F035         	movff	___xxtofl@val+1,??___xxtofl+1
  7141  005AC6  C032  F036         	movff	___xxtofl@val+2,??___xxtofl+2
  7142  005ACA  C033  F037         	movff	___xxtofl@val+3,??___xxtofl+3
  7143  005ACE  1E34               	comf	??___xxtofl^0,f,c
  7144  005AD0  1E35               	comf	(??___xxtofl+1)^0,f,c
  7145  005AD2  1E36               	comf	(??___xxtofl+2)^0,f,c
  7146  005AD4  1E37               	comf	(??___xxtofl+3)^0,f,c
  7147  005AD6  2A34               	incf	??___xxtofl^0,f,c
  7148  005AD8  0E00               	movlw	0
  7149  005ADA  2235               	addwfc	(??___xxtofl+1)^0,f,c
  7150  005ADC  2236               	addwfc	(??___xxtofl+2)^0,f,c
  7151  005ADE  2237               	addwfc	(??___xxtofl+3)^0,f,c
  7152  005AE0  C034  F03A         	movff	??___xxtofl,___xxtofl@arg
  7153  005AE4  C035  F03B         	movff	??___xxtofl+1,___xxtofl@arg+1
  7154  005AE8  C036  F03C         	movff	??___xxtofl+2,___xxtofl@arg+2
  7155  005AEC  C037  F03D         	movff	??___xxtofl+3,___xxtofl@arg+3
  7156  005AF0  EF82  F02D         	goto	l3588
  7157  005AF4                     l1112:
  7158  005AF4  C030  F03A         	movff	___xxtofl@val,___xxtofl@arg
  7159  005AF8  C031  F03B         	movff	___xxtofl@val+1,___xxtofl@arg+1
  7160  005AFC  C032  F03C         	movff	___xxtofl@val+2,___xxtofl@arg+2
  7161  005B00  C033  F03D         	movff	___xxtofl@val+3,___xxtofl@arg+3
  7162  005B04                     l3588:
  7163  005B04  5030               	movf	___xxtofl@val^0,w,c
  7164  005B06  1031               	iorwf	(___xxtofl@val+1)^0,w,c
  7165  005B08  1032               	iorwf	(___xxtofl@val+2)^0,w,c
  7166  005B0A  1033               	iorwf	(___xxtofl@val+3)^0,w,c
  7167  005B0C  A4D8               	btfss	status,2,c
  7168  005B0E  EF8B  F02D         	goto	u4081
  7169  005B12  EF8D  F02D         	goto	u4080
  7170  005B16                     u4081:
  7171  005B16  EF97  F02D         	goto	l3594
  7172  005B1A                     u4080:
  7173  005B1A  0E00               	movlw	0
  7174  005B1C  6E30               	movwf	?___xxtofl^0,c
  7175  005B1E  0E00               	movlw	0
  7176  005B20  6E31               	movwf	(?___xxtofl+1)^0,c
  7177  005B22  0E00               	movlw	0
  7178  005B24  6E32               	movwf	(?___xxtofl+2)^0,c
  7179  005B26  0E00               	movlw	0
  7180  005B28  6E33               	movwf	(?___xxtofl+3)^0,c
  7181  005B2A  EF28  F02E         	goto	l1115
  7182  005B2E                     l3594:
  7183  005B2E  0E96               	movlw	150
  7184  005B30  6E39               	movwf	___xxtofl@exp^0,c
  7185  005B32  EFA1  F02D         	goto	l3598
  7186  005B36                     l3596:
  7187  005B36  2A39               	incf	___xxtofl@exp^0,f,c
  7188  005B38  90D8               	bcf	status,0,c
  7189  005B3A  323D               	rrcf	(___xxtofl@arg+3)^0,f,c
  7190  005B3C  323C               	rrcf	(___xxtofl@arg+2)^0,f,c
  7191  005B3E  323B               	rrcf	(___xxtofl@arg+1)^0,f,c
  7192  005B40  323A               	rrcf	___xxtofl@arg^0,f,c
  7193  005B42                     l3598:
  7194  005B42  0E00               	movlw	0
  7195  005B44  143A               	andwf	___xxtofl@arg^0,w,c
  7196  005B46  6E34               	movwf	??___xxtofl^0,c
  7197  005B48  0E00               	movlw	0
  7198  005B4A  143B               	andwf	(___xxtofl@arg+1)^0,w,c
  7199  005B4C  6E35               	movwf	(??___xxtofl+1)^0,c
  7200  005B4E  0E00               	movlw	0
  7201  005B50  143C               	andwf	(___xxtofl@arg+2)^0,w,c
  7202  005B52  6E36               	movwf	(??___xxtofl+2)^0,c
  7203  005B54  0EFE               	movlw	254
  7204  005B56  143D               	andwf	(___xxtofl@arg+3)^0,w,c
  7205  005B58  6E37               	movwf	(??___xxtofl+3)^0,c
  7206  005B5A  5034               	movf	??___xxtofl^0,w,c
  7207  005B5C  1035               	iorwf	(??___xxtofl+1)^0,w,c
  7208  005B5E  1036               	iorwf	(??___xxtofl+2)^0,w,c
  7209  005B60  1037               	iorwf	(??___xxtofl+3)^0,w,c
  7210  005B62  A4D8               	btfss	status,2,c
  7211  005B64  EFB6  F02D         	goto	u4091
  7212  005B68  EFB8  F02D         	goto	u4090
  7213  005B6C                     u4091:
  7214  005B6C  EF9B  F02D         	goto	l3596
  7215  005B70                     u4090:
  7216  005B70  EFC6  F02D         	goto	l1119
  7217  005B74                     l3600:
  7218  005B74  2A39               	incf	___xxtofl@exp^0,f,c
  7219  005B76  0E01               	movlw	1
  7220  005B78  263A               	addwf	___xxtofl@arg^0,f,c
  7221  005B7A  0E00               	movlw	0
  7222  005B7C  223B               	addwfc	(___xxtofl@arg+1)^0,f,c
  7223  005B7E  223C               	addwfc	(___xxtofl@arg+2)^0,f,c
  7224  005B80  223D               	addwfc	(___xxtofl@arg+3)^0,f,c
  7225  005B82  90D8               	bcf	status,0,c
  7226  005B84  323D               	rrcf	(___xxtofl@arg+3)^0,f,c
  7227  005B86  323C               	rrcf	(___xxtofl@arg+2)^0,f,c
  7228  005B88  323B               	rrcf	(___xxtofl@arg+1)^0,f,c
  7229  005B8A  323A               	rrcf	___xxtofl@arg^0,f,c
  7230  005B8C                     l1119:
  7231  005B8C  0E00               	movlw	0
  7232  005B8E  143A               	andwf	___xxtofl@arg^0,w,c
  7233  005B90  6E34               	movwf	??___xxtofl^0,c
  7234  005B92  0E00               	movlw	0
  7235  005B94  143B               	andwf	(___xxtofl@arg+1)^0,w,c
  7236  005B96  6E35               	movwf	(??___xxtofl+1)^0,c
  7237  005B98  0E00               	movlw	0
  7238  005B9A  143C               	andwf	(___xxtofl@arg+2)^0,w,c
  7239  005B9C  6E36               	movwf	(??___xxtofl+2)^0,c
  7240  005B9E  0EFF               	movlw	255
  7241  005BA0  143D               	andwf	(___xxtofl@arg+3)^0,w,c
  7242  005BA2  6E37               	movwf	(??___xxtofl+3)^0,c
  7243  005BA4  5034               	movf	??___xxtofl^0,w,c
  7244  005BA6  1035               	iorwf	(??___xxtofl+1)^0,w,c
  7245  005BA8  1036               	iorwf	(??___xxtofl+2)^0,w,c
  7246  005BAA  1037               	iorwf	(??___xxtofl+3)^0,w,c
  7247  005BAC  A4D8               	btfss	status,2,c
  7248  005BAE  EFDB  F02D         	goto	u4101
  7249  005BB2  EFDD  F02D         	goto	u4100
  7250  005BB6                     u4101:
  7251  005BB6  EFBA  F02D         	goto	l3600
  7252  005BBA                     u4100:
  7253  005BBA  EFE5  F02D         	goto	l3608
  7254  005BBE                     l3606:
  7255  005BBE  0639               	decf	___xxtofl@exp^0,f,c
  7256  005BC0  90D8               	bcf	status,0,c
  7257  005BC2  363A               	rlcf	___xxtofl@arg^0,f,c
  7258  005BC4  363B               	rlcf	(___xxtofl@arg+1)^0,f,c
  7259  005BC6  363C               	rlcf	(___xxtofl@arg+2)^0,f,c
  7260  005BC8  363D               	rlcf	(___xxtofl@arg+3)^0,f,c
  7261  005BCA                     l3608:
  7262  005BCA  BE3C               	btfsc	(___xxtofl@arg+2)^0,7,c
  7263  005BCC  EFEA  F02D         	goto	u4111
  7264  005BD0  EFEC  F02D         	goto	u4110
  7265  005BD4                     u4111:
  7266  005BD4  EFF4  F02D         	goto	l1126
  7267  005BD8                     u4110:
  7268  005BD8  0E02               	movlw	2
  7269  005BDA  6039               	cpfslt	___xxtofl@exp^0,c
  7270  005BDC  EFF2  F02D         	goto	u4121
  7271  005BE0  EFF4  F02D         	goto	u4120
  7272  005BE4                     u4121:
  7273  005BE4  EFDF  F02D         	goto	l3606
  7274  005BE8                     u4120:
  7275  005BE8                     l1126:
  7276  005BE8  B039               	btfsc	___xxtofl@exp^0,0,c
  7277  005BEA  EFF9  F02D         	goto	u4131
  7278  005BEE  EFFB  F02D         	goto	u4130
  7279  005BF2                     u4131:
  7280  005BF2  EFFC  F02D         	goto	l3614
  7281  005BF6                     u4130:
  7282  005BF6  9E3C               	bcf	(___xxtofl@arg+2)^0,7,c
  7283  005BF8                     l3614:
  7284  005BF8  90D8               	bcf	status,0,c
  7285  005BFA  3239               	rrcf	___xxtofl@exp^0,f,c
  7286  005BFC  C039  F034         	movff	___xxtofl@exp,??___xxtofl
  7287  005C00  6A35               	clrf	(??___xxtofl+1)^0,c
  7288  005C02  6A36               	clrf	(??___xxtofl+2)^0,c
  7289  005C04  6A37               	clrf	(??___xxtofl+3)^0,c
  7290  005C06  C034  F037         	movff	??___xxtofl,??___xxtofl+3
  7291  005C0A  6A36               	clrf	(??___xxtofl+2)^0,c
  7292  005C0C  6A35               	clrf	(??___xxtofl+1)^0,c
  7293  005C0E  6A34               	clrf	??___xxtofl^0,c
  7294  005C10  5034               	movf	??___xxtofl^0,w,c
  7295  005C12  123A               	iorwf	___xxtofl@arg^0,f,c
  7296  005C14  5035               	movf	(??___xxtofl+1)^0,w,c
  7297  005C16  123B               	iorwf	(___xxtofl@arg+1)^0,f,c
  7298  005C18  5036               	movf	(??___xxtofl+2)^0,w,c
  7299  005C1A  123C               	iorwf	(___xxtofl@arg+2)^0,f,c
  7300  005C1C  5037               	movf	(??___xxtofl+3)^0,w,c
  7301  005C1E  123D               	iorwf	(___xxtofl@arg+3)^0,f,c
  7302  005C20  5038               	movf	___xxtofl@sign^0,w,c
  7303  005C22  B4D8               	btfsc	status,2,c
  7304  005C24  EF16  F02E         	goto	u4141
  7305  005C28  EF18  F02E         	goto	u4140
  7306  005C2C                     u4141:
  7307  005C2C  EF20  F02E         	goto	l3624
  7308  005C30                     u4140:
  7309  005C30  BE33               	btfsc	(___xxtofl@val+3)^0,7,c
  7310  005C32  EF1F  F02E         	goto	u4150
  7311  005C36  EF1D  F02E         	goto	u4151
  7312  005C3A                     u4151:
  7313  005C3A  EF20  F02E         	goto	l3624
  7314  005C3E                     u4150:
  7315  005C3E  8E3D               	bsf	(___xxtofl@arg+3)^0,7,c
  7316  005C40                     l3624:
  7317  005C40  C03A  F030         	movff	___xxtofl@arg,?___xxtofl
  7318  005C44  C03B  F031         	movff	___xxtofl@arg+1,?___xxtofl+1
  7319  005C48  C03C  F032         	movff	___xxtofl@arg+2,?___xxtofl+2
  7320  005C4C  C03D  F033         	movff	___xxtofl@arg+3,?___xxtofl+3
  7321  005C50                     l1115:
  7322  005C50  0012               	return		;funcret
  7323  005C52                     __end_of___xxtofl:
  7324                           	callstack 0
  7325                           
  7326 ;; *************** function ___wmul *****************
  7327 ;; Defined at:
  7328 ;;		line 15 in file "C:\Program Files\Microchip\xc8\v2.32\pic\sources\c99\common\Umul16.c"
  7329 ;; Parameters:    Size  Location     Type
  7330 ;;  multiplier      2   41[COMRAM] unsigned int 
  7331 ;;  multiplicand    2   43[COMRAM] unsigned int 
  7332 ;; Auto vars:     Size  Location     Type
  7333 ;;  product         2   45[COMRAM] unsigned int 
  7334 ;; Return value:  Size  Location     Type
  7335 ;;                  2   41[COMRAM] unsigned int 
  7336 ;; Registers used:
  7337 ;;		wreg, status,2, status,0, prodl, prodh
  7338 ;; Tracked objects:
  7339 ;;		On entry : 0/0
  7340 ;;		On exit  : 0/0
  7341 ;;		Unchanged: 0/0
  7342 ;; Data sizes:     COMRAM   BANK0   BANK1   BANK2   BANK3   BANK4   BANK5
  7343 ;;      Params:         4       0       0       0       0       0       0
  7344 ;;      Locals:         2       0       0       0       0       0       0
  7345 ;;      Temps:          0       0       0       0       0       0       0
  7346 ;;      Totals:         6       0       0       0       0       0       0
  7347 ;;Total ram usage:        6 bytes
  7348 ;; Hardware stack levels used: 1
  7349 ;; This function calls:
  7350 ;;		Nothing
  7351 ;; This function is called by:
  7352 ;;		_selecaoCombustivel
  7353 ;; This function uses a non-reentrant model
  7354 ;;
  7355                           
  7356                           	psect	text29
  7357  004BF4                     __ptext29:
  7358                           	callstack 0
  7359  004BF4                     ___wmul:
  7360                           	callstack 29
  7361  004BF4  502A               	movf	___wmul@multiplier^0,w,c
  7362  004BF6  022C               	mulwf	___wmul@multiplicand^0,c
  7363  004BF8  CFF3 F02E          	movff	prodl,___wmul@product
  7364  004BFC  CFF4 F02F          	movff	prodh,___wmul@product+1
  7365  004C00  502A               	movf	___wmul@multiplier^0,w,c
  7366  004C02  022D               	mulwf	(___wmul@multiplicand+1)^0,c
  7367  004C04  50F3               	movf	243,w,c
  7368  004C06  262F               	addwf	(___wmul@product+1)^0,f,c
  7369  004C08  502B               	movf	(___wmul@multiplier+1)^0,w,c
  7370  004C0A  022C               	mulwf	___wmul@multiplicand^0,c
  7371  004C0C  50F3               	movf	243,w,c
  7372  004C0E  262F               	addwf	(___wmul@product+1)^0,f,c
  7373  004C10  C02E  F02A         	movff	___wmul@product,?___wmul
  7374  004C14  C02F  F02B         	movff	___wmul@product+1,?___wmul+1
  7375  004C18  0012               	return		;funcret
  7376  004C1A                     __end_of___wmul:
  7377                           	callstack 0
  7378                           
  7379 ;; *************** function ___flmul *****************
  7380 ;; Defined at:
  7381 ;;		line 8 in file "C:\Program Files\Microchip\xc8\v2.32\pic\sources\c99\common\sprcmul.c"
  7382 ;; Parameters:    Size  Location     Type
  7383 ;;  b               4   61[COMRAM] unsigned int 
  7384 ;;  a               4   65[COMRAM] unsigned int 
  7385 ;; Auto vars:     Size  Location     Type
  7386 ;;  prod            4   80[COMRAM] struct .
  7387 ;;  grs             4   74[COMRAM] unsigned long 
  7388 ;;  temp            2   84[COMRAM] struct .
  7389 ;;  bexp            1   79[COMRAM] unsigned char 
  7390 ;;  aexp            1   78[COMRAM] unsigned char 
  7391 ;;  sign            1   73[COMRAM] unsigned char 
  7392 ;; Return value:  Size  Location     Type
  7393 ;;                  4   61[COMRAM] unsigned char 
  7394 ;; Registers used:
  7395 ;;		wreg, status,2, status,0, prodl, prodh
  7396 ;; Tracked objects:
  7397 ;;		On entry : 0/0
  7398 ;;		On exit  : 0/0
  7399 ;;		Unchanged: 0/0
  7400 ;; Data sizes:     COMRAM   BANK0   BANK1   BANK2   BANK3   BANK4   BANK5
  7401 ;;      Params:         8       0       0       0       0       0       0
  7402 ;;      Locals:        13       0       0       0       0       0       0
  7403 ;;      Temps:          4       0       0       0       0       0       0
  7404 ;;      Totals:        25       0       0       0       0       0       0
  7405 ;;Total ram usage:       25 bytes
  7406 ;; Hardware stack levels used: 1
  7407 ;; This function calls:
  7408 ;;		Nothing
  7409 ;; This function is called by:
  7410 ;;		_selecaoCombustivel
  7411 ;; This function uses a non-reentrant model
  7412 ;;
  7413                           
  7414                           	psect	text30
  7415  006488                     __ptext30:
  7416                           	callstack 0
  7417  006488                     ___flmul:
  7418                           	callstack 29
  7419  006488  5041               	movf	(___flmul@b+3)^0,w,c
  7420  00648A  0B80               	andlw	128
  7421  00648C  6E4A               	movwf	___flmul@sign^0,c
  7422  00648E  5041               	movf	(___flmul@b+3)^0,w,c
  7423  006490  2441               	addwf	(___flmul@b+3)^0,w,c
  7424  006492  6E50               	movwf	___flmul@bexp^0,c
  7425  006494  AE40               	btfss	(___flmul@b+2)^0,7,c
  7426  006496  EF4F  F032         	goto	u3871
  7427  00649A  EF51  F032         	goto	u3870
  7428  00649E                     u3871:
  7429  00649E  EF52  F032         	goto	l3458
  7430  0064A2                     u3870:
  7431  0064A2  8050               	bsf	___flmul@bexp^0,0,c
  7432  0064A4                     l3458:
  7433  0064A4  5050               	movf	___flmul@bexp^0,w,c
  7434  0064A6  B4D8               	btfsc	status,2,c
  7435  0064A8  EF58  F032         	goto	u3881
  7436  0064AC  EF5A  F032         	goto	u3880
  7437  0064B0                     u3881:
  7438  0064B0  EF6D  F032         	goto	l3466
  7439  0064B4                     u3880:
  7440  0064B4  2850               	incf	___flmul@bexp^0,w,c
  7441  0064B6  A4D8               	btfss	status,2,c
  7442  0064B8  EF60  F032         	goto	u3891
  7443  0064BC  EF62  F032         	goto	u3890
  7444  0064C0                     u3891:
  7445  0064C0  EF6A  F032         	goto	l3464
  7446  0064C4                     u3890:
  7447  0064C4  0E00               	movlw	0
  7448  0064C6  6E3E               	movwf	___flmul@b^0,c
  7449  0064C8  0E00               	movlw	0
  7450  0064CA  6E3F               	movwf	(___flmul@b+1)^0,c
  7451  0064CC  0E00               	movlw	0
  7452  0064CE  6E40               	movwf	(___flmul@b+2)^0,c
  7453  0064D0  0E00               	movlw	0
  7454  0064D2  6E41               	movwf	(___flmul@b+3)^0,c
  7455  0064D4                     l3464:
  7456  0064D4  8E40               	bsf	(___flmul@b+2)^0,7,c
  7457  0064D6  EF75  F032         	goto	l3468
  7458  0064DA                     l3466:
  7459  0064DA  0E00               	movlw	0
  7460  0064DC  6E3E               	movwf	___flmul@b^0,c
  7461  0064DE  0E00               	movlw	0
  7462  0064E0  6E3F               	movwf	(___flmul@b+1)^0,c
  7463  0064E2  0E00               	movlw	0
  7464  0064E4  6E40               	movwf	(___flmul@b+2)^0,c
  7465  0064E6  0E00               	movlw	0
  7466  0064E8  6E41               	movwf	(___flmul@b+3)^0,c
  7467  0064EA                     l3468:
  7468  0064EA  5045               	movf	(___flmul@a+3)^0,w,c
  7469  0064EC  0B80               	andlw	128
  7470  0064EE  1A4A               	xorwf	___flmul@sign^0,f,c
  7471  0064F0  5045               	movf	(___flmul@a+3)^0,w,c
  7472  0064F2  2445               	addwf	(___flmul@a+3)^0,w,c
  7473  0064F4  6E4F               	movwf	___flmul@aexp^0,c
  7474  0064F6  AE44               	btfss	(___flmul@a+2)^0,7,c
  7475  0064F8  EF80  F032         	goto	u3901
  7476  0064FC  EF82  F032         	goto	u3900
  7477  006500                     u3901:
  7478  006500  EF83  F032         	goto	l3476
  7479  006504                     u3900:
  7480  006504  804F               	bsf	___flmul@aexp^0,0,c
  7481  006506                     l3476:
  7482  006506  504F               	movf	___flmul@aexp^0,w,c
  7483  006508  B4D8               	btfsc	status,2,c
  7484  00650A  EF89  F032         	goto	u3911
  7485  00650E  EF8B  F032         	goto	u3910
  7486  006512                     u3911:
  7487  006512  EF9E  F032         	goto	l3484
  7488  006516                     u3910:
  7489  006516  284F               	incf	___flmul@aexp^0,w,c
  7490  006518  A4D8               	btfss	status,2,c
  7491  00651A  EF91  F032         	goto	u3921
  7492  00651E  EF93  F032         	goto	u3920
  7493  006522                     u3921:
  7494  006522  EF9B  F032         	goto	l3482
  7495  006526                     u3920:
  7496  006526  0E00               	movlw	0
  7497  006528  6E42               	movwf	___flmul@a^0,c
  7498  00652A  0E00               	movlw	0
  7499  00652C  6E43               	movwf	(___flmul@a+1)^0,c
  7500  00652E  0E00               	movlw	0
  7501  006530  6E44               	movwf	(___flmul@a+2)^0,c
  7502  006532  0E00               	movlw	0
  7503  006534  6E45               	movwf	(___flmul@a+3)^0,c
  7504  006536                     l3482:
  7505  006536  8E44               	bsf	(___flmul@a+2)^0,7,c
  7506  006538  EFA6  F032         	goto	l1071
  7507  00653C                     l3484:
  7508  00653C  0E00               	movlw	0
  7509  00653E  6E42               	movwf	___flmul@a^0,c
  7510  006540  0E00               	movlw	0
  7511  006542  6E43               	movwf	(___flmul@a+1)^0,c
  7512  006544  0E00               	movlw	0
  7513  006546  6E44               	movwf	(___flmul@a+2)^0,c
  7514  006548  0E00               	movlw	0
  7515  00654A  6E45               	movwf	(___flmul@a+3)^0,c
  7516  00654C                     l1071:
  7517  00654C  504F               	movf	___flmul@aexp^0,w,c
  7518  00654E  B4D8               	btfsc	status,2,c
  7519  006550  EFAC  F032         	goto	u3931
  7520  006554  EFAE  F032         	goto	u3930
  7521  006558                     u3931:
  7522  006558  EFB6  F032         	goto	l3488
  7523  00655C                     u3930:
  7524  00655C  5050               	movf	___flmul@bexp^0,w,c
  7525  00655E  A4D8               	btfss	status,2,c
  7526  006560  EFB4  F032         	goto	u3941
  7527  006564  EFB6  F032         	goto	u3940
  7528  006568                     u3941:
  7529  006568  EFC0  F032         	goto	l3492
  7530  00656C                     u3940:
  7531  00656C                     l3488:
  7532  00656C  0E00               	movlw	0
  7533  00656E  6E3E               	movwf	?___flmul^0,c
  7534  006570  0E00               	movlw	0
  7535  006572  6E3F               	movwf	(?___flmul+1)^0,c
  7536  006574  0E00               	movlw	0
  7537  006576  6E40               	movwf	(?___flmul+2)^0,c
  7538  006578  0E00               	movlw	0
  7539  00657A  6E41               	movwf	(?___flmul+3)^0,c
  7540  00657C  EF58  F034         	goto	l1075
  7541  006580                     l3492:
  7542  006580  5044               	movf	(___flmul@a+2)^0,w,c
  7543  006582  023E               	mulwf	___flmul@b^0,c
  7544  006584  CFF3 F055          	movff	prodl,___flmul@temp
  7545  006588  CFF4 F056          	movff	prodh,___flmul@temp+1
  7546  00658C  5055               	movf	___flmul@temp^0,w,c
  7547  00658E  6E4B               	movwf	___flmul@grs^0,c
  7548  006590  6A4C               	clrf	(___flmul@grs+1)^0,c
  7549  006592  6A4D               	clrf	(___flmul@grs+2)^0,c
  7550  006594  6A4E               	clrf	(___flmul@grs+3)^0,c
  7551  006596  5056               	movf	(___flmul@temp+1)^0,w,c
  7552  006598  6E51               	movwf	___flmul@prod^0,c
  7553  00659A  6A52               	clrf	(___flmul@prod+1)^0,c
  7554  00659C  6A53               	clrf	(___flmul@prod+2)^0,c
  7555  00659E  6A54               	clrf	(___flmul@prod+3)^0,c
  7556  0065A0  5043               	movf	(___flmul@a+1)^0,w,c
  7557  0065A2  023F               	mulwf	(___flmul@b+1)^0,c
  7558  0065A4  CFF3 F055          	movff	prodl,___flmul@temp
  7559  0065A8  CFF4 F056          	movff	prodh,___flmul@temp+1
  7560  0065AC  5055               	movf	___flmul@temp^0,w,c
  7561  0065AE  264B               	addwf	___flmul@grs^0,f,c
  7562  0065B0  0E00               	movlw	0
  7563  0065B2  224C               	addwfc	(___flmul@grs+1)^0,f,c
  7564  0065B4  224D               	addwfc	(___flmul@grs+2)^0,f,c
  7565  0065B6  224E               	addwfc	(___flmul@grs+3)^0,f,c
  7566  0065B8  5056               	movf	(___flmul@temp+1)^0,w,c
  7567  0065BA  2651               	addwf	___flmul@prod^0,f,c
  7568  0065BC  0E00               	movlw	0
  7569  0065BE  2252               	addwfc	(___flmul@prod+1)^0,f,c
  7570  0065C0  2253               	addwfc	(___flmul@prod+2)^0,f,c
  7571  0065C2  2254               	addwfc	(___flmul@prod+3)^0,f,c
  7572  0065C4  5042               	movf	___flmul@a^0,w,c
  7573  0065C6  0240               	mulwf	(___flmul@b+2)^0,c
  7574  0065C8  CFF3 F055          	movff	prodl,___flmul@temp
  7575  0065CC  CFF4 F056          	movff	prodh,___flmul@temp+1
  7576  0065D0  5055               	movf	___flmul@temp^0,w,c
  7577  0065D2  264B               	addwf	___flmul@grs^0,f,c
  7578  0065D4  0E00               	movlw	0
  7579  0065D6  224C               	addwfc	(___flmul@grs+1)^0,f,c
  7580  0065D8  224D               	addwfc	(___flmul@grs+2)^0,f,c
  7581  0065DA  224E               	addwfc	(___flmul@grs+3)^0,f,c
  7582  0065DC  5056               	movf	(___flmul@temp+1)^0,w,c
  7583  0065DE  2651               	addwf	___flmul@prod^0,f,c
  7584  0065E0  0E00               	movlw	0
  7585  0065E2  2252               	addwfc	(___flmul@prod+1)^0,f,c
  7586  0065E4  2253               	addwfc	(___flmul@prod+2)^0,f,c
  7587  0065E6  2254               	addwfc	(___flmul@prod+3)^0,f,c
  7588  0065E8  C04D  F04E         	movff	___flmul@grs+2,___flmul@grs+3
  7589  0065EC  C04C  F04D         	movff	___flmul@grs+1,___flmul@grs+2
  7590  0065F0  C04B  F04C         	movff	___flmul@grs,___flmul@grs+1
  7591  0065F4  6A4B               	clrf	___flmul@grs^0,c
  7592  0065F6  5042               	movf	___flmul@a^0,w,c
  7593  0065F8  023F               	mulwf	(___flmul@b+1)^0,c
  7594  0065FA  CFF3 F055          	movff	prodl,___flmul@temp
  7595  0065FE  CFF4 F056          	movff	prodh,___flmul@temp+1
  7596  006602  5055               	movf	___flmul@temp^0,w,c
  7597  006604  264B               	addwf	___flmul@grs^0,f,c
  7598  006606  5056               	movf	(___flmul@temp+1)^0,w,c
  7599  006608  224C               	addwfc	(___flmul@grs+1)^0,f,c
  7600  00660A  0E00               	movlw	0
  7601  00660C  224D               	addwfc	(___flmul@grs+2)^0,f,c
  7602  00660E  0E00               	movlw	0
  7603  006610  224E               	addwfc	(___flmul@grs+3)^0,f,c
  7604  006612  5043               	movf	(___flmul@a+1)^0,w,c
  7605  006614  023E               	mulwf	___flmul@b^0,c
  7606  006616  CFF3 F055          	movff	prodl,___flmul@temp
  7607  00661A  CFF4 F056          	movff	prodh,___flmul@temp+1
  7608  00661E  5055               	movf	___flmul@temp^0,w,c
  7609  006620  264B               	addwf	___flmul@grs^0,f,c
  7610  006622  5056               	movf	(___flmul@temp+1)^0,w,c
  7611  006624  224C               	addwfc	(___flmul@grs+1)^0,f,c
  7612  006626  0E00               	movlw	0
  7613  006628  224D               	addwfc	(___flmul@grs+2)^0,f,c
  7614  00662A  0E00               	movlw	0
  7615  00662C  224E               	addwfc	(___flmul@grs+3)^0,f,c
  7616  00662E  C04D  F04E         	movff	___flmul@grs+2,___flmul@grs+3
  7617  006632  C04C  F04D         	movff	___flmul@grs+1,___flmul@grs+2
  7618  006636  C04B  F04C         	movff	___flmul@grs,___flmul@grs+1
  7619  00663A  6A4B               	clrf	___flmul@grs^0,c
  7620  00663C  5042               	movf	___flmul@a^0,w,c
  7621  00663E  023E               	mulwf	___flmul@b^0,c
  7622  006640  CFF3 F055          	movff	prodl,___flmul@temp
  7623  006644  CFF4 F056          	movff	prodh,___flmul@temp+1
  7624  006648  5055               	movf	___flmul@temp^0,w,c
  7625  00664A  264B               	addwf	___flmul@grs^0,f,c
  7626  00664C  5056               	movf	(___flmul@temp+1)^0,w,c
  7627  00664E  224C               	addwfc	(___flmul@grs+1)^0,f,c
  7628  006650  0E00               	movlw	0
  7629  006652  224D               	addwfc	(___flmul@grs+2)^0,f,c
  7630  006654  0E00               	movlw	0
  7631  006656  224E               	addwfc	(___flmul@grs+3)^0,f,c
  7632  006658  5044               	movf	(___flmul@a+2)^0,w,c
  7633  00665A  023F               	mulwf	(___flmul@b+1)^0,c
  7634  00665C  CFF3 F055          	movff	prodl,___flmul@temp
  7635  006660  CFF4 F056          	movff	prodh,___flmul@temp+1
  7636  006664  5055               	movf	___flmul@temp^0,w,c
  7637  006666  2651               	addwf	___flmul@prod^0,f,c
  7638  006668  5056               	movf	(___flmul@temp+1)^0,w,c
  7639  00666A  2252               	addwfc	(___flmul@prod+1)^0,f,c
  7640  00666C  0E00               	movlw	0
  7641  00666E  2253               	addwfc	(___flmul@prod+2)^0,f,c
  7642  006670  0E00               	movlw	0
  7643  006672  2254               	addwfc	(___flmul@prod+3)^0,f,c
  7644  006674  5043               	movf	(___flmul@a+1)^0,w,c
  7645  006676  0240               	mulwf	(___flmul@b+2)^0,c
  7646  006678  CFF3 F055          	movff	prodl,___flmul@temp
  7647  00667C  CFF4 F056          	movff	prodh,___flmul@temp+1
  7648  006680  5055               	movf	___flmul@temp^0,w,c
  7649  006682  2651               	addwf	___flmul@prod^0,f,c
  7650  006684  5056               	movf	(___flmul@temp+1)^0,w,c
  7651  006686  2252               	addwfc	(___flmul@prod+1)^0,f,c
  7652  006688  0E00               	movlw	0
  7653  00668A  2253               	addwfc	(___flmul@prod+2)^0,f,c
  7654  00668C  0E00               	movlw	0
  7655  00668E  2254               	addwfc	(___flmul@prod+3)^0,f,c
  7656  006690  5044               	movf	(___flmul@a+2)^0,w,c
  7657  006692  0240               	mulwf	(___flmul@b+2)^0,c
  7658  006694  CFF3 F055          	movff	prodl,___flmul@temp
  7659  006698  CFF4 F056          	movff	prodh,___flmul@temp+1
  7660  00669C  5055               	movf	___flmul@temp^0,w,c
  7661  00669E  6E46               	movwf	??___flmul^0,c
  7662  0066A0  5056               	movf	(___flmul@temp+1)^0,w,c
  7663  0066A2  6E47               	movwf	(??___flmul+1)^0,c
  7664  0066A4  6A48               	clrf	(??___flmul+2)^0,c
  7665  0066A6  6A49               	clrf	(??___flmul+3)^0,c
  7666  0066A8  C048  F049         	movff	??___flmul+2,??___flmul+3
  7667  0066AC  C047  F048         	movff	??___flmul+1,??___flmul+2
  7668  0066B0  C046  F047         	movff	??___flmul,??___flmul+1
  7669  0066B4  6A46               	clrf	??___flmul^0,c
  7670  0066B6  5046               	movf	??___flmul^0,w,c
  7671  0066B8  2651               	addwf	___flmul@prod^0,f,c
  7672  0066BA  5047               	movf	(??___flmul+1)^0,w,c
  7673  0066BC  2252               	addwfc	(___flmul@prod+1)^0,f,c
  7674  0066BE  5048               	movf	(??___flmul+2)^0,w,c
  7675  0066C0  2253               	addwfc	(___flmul@prod+2)^0,f,c
  7676  0066C2  5049               	movf	(??___flmul+3)^0,w,c
  7677  0066C4  2254               	addwfc	(___flmul@prod+3)^0,f,c
  7678  0066C6  C04B  F046         	movff	___flmul@grs,??___flmul
  7679  0066CA  C04C  F047         	movff	___flmul@grs+1,??___flmul+1
  7680  0066CE  C04D  F048         	movff	___flmul@grs+2,??___flmul+2
  7681  0066D2  C04E  F049         	movff	___flmul@grs+3,??___flmul+3
  7682  0066D6  0E19               	movlw	25
  7683  0066D8  EF73  F033         	goto	u3950
  7684  0066DC                     u3955:
  7685  0066DC  90D8               	bcf	status,0,c
  7686  0066DE  3249               	rrcf	(??___flmul+3)^0,f,c
  7687  0066E0  3248               	rrcf	(??___flmul+2)^0,f,c
  7688  0066E2  3247               	rrcf	(??___flmul+1)^0,f,c
  7689  0066E4  3246               	rrcf	??___flmul^0,f,c
  7690  0066E6                     u3950:
  7691  0066E6  2EE8               	decfsz	wreg,f,c
  7692  0066E8  EF6E  F033         	goto	u3955
  7693  0066EC  5046               	movf	??___flmul^0,w,c
  7694  0066EE  2651               	addwf	___flmul@prod^0,f,c
  7695  0066F0  5047               	movf	(??___flmul+1)^0,w,c
  7696  0066F2  2252               	addwfc	(___flmul@prod+1)^0,f,c
  7697  0066F4  5048               	movf	(??___flmul+2)^0,w,c
  7698  0066F6  2253               	addwfc	(___flmul@prod+2)^0,f,c
  7699  0066F8  5049               	movf	(??___flmul+3)^0,w,c
  7700  0066FA  2254               	addwfc	(___flmul@prod+3)^0,f,c
  7701  0066FC  C04D  F04E         	movff	___flmul@grs+2,___flmul@grs+3
  7702  006700  C04C  F04D         	movff	___flmul@grs+1,___flmul@grs+2
  7703  006704  C04B  F04C         	movff	___flmul@grs,___flmul@grs+1
  7704  006708  6A4B               	clrf	___flmul@grs^0,c
  7705  00670A  504F               	movf	___flmul@aexp^0,w,c
  7706  00670C  C050  F046         	movff	___flmul@bexp,??___flmul
  7707  006710  6A47               	clrf	(??___flmul+1)^0,c
  7708  006712  2646               	addwf	??___flmul^0,f,c
  7709  006714  0E00               	movlw	0
  7710  006716  2247               	addwfc	(??___flmul+1)^0,f,c
  7711  006718  0E82               	movlw	130
  7712  00671A  2446               	addwf	??___flmul^0,w,c
  7713  00671C  6E55               	movwf	___flmul@temp^0,c
  7714  00671E  0EFF               	movlw	255
  7715  006720  2047               	addwfc	(??___flmul+1)^0,w,c
  7716  006722  6E56               	movwf	(___flmul@temp+1)^0,c
  7717  006724  EFA9  F033         	goto	l3540
  7718  006728                     l3534:
  7719  006728  90D8               	bcf	status,0,c
  7720  00672A  3651               	rlcf	___flmul@prod^0,f,c
  7721  00672C  3652               	rlcf	(___flmul@prod+1)^0,f,c
  7722  00672E  3653               	rlcf	(___flmul@prod+2)^0,f,c
  7723  006730  3654               	rlcf	(___flmul@prod+3)^0,f,c
  7724  006732  AE4E               	btfss	(___flmul@grs+3)^0,7,c
  7725  006734  EF9E  F033         	goto	u3961
  7726  006738  EFA0  F033         	goto	u3960
  7727  00673C                     u3961:
  7728  00673C  EFA1  F033         	goto	l1078
  7729  006740                     u3960:
  7730  006740  8051               	bsf	___flmul@prod^0,0,c
  7731  006742                     l1078:
  7732  006742  90D8               	bcf	status,0,c
  7733  006744  364B               	rlcf	___flmul@grs^0,f,c
  7734  006746  364C               	rlcf	(___flmul@grs+1)^0,f,c
  7735  006748  364D               	rlcf	(___flmul@grs+2)^0,f,c
  7736  00674A  364E               	rlcf	(___flmul@grs+3)^0,f,c
  7737  00674C  0655               	decf	___flmul@temp^0,f,c
  7738  00674E  A0D8               	btfss	status,0,c
  7739  006750  0656               	decf	(___flmul@temp+1)^0,f,c
  7740  006752                     l3540:
  7741  006752  AE53               	btfss	(___flmul@prod+2)^0,7,c
  7742  006754  EFAE  F033         	goto	u3971
  7743  006758  EFB0  F033         	goto	u3970
  7744  00675C                     u3971:
  7745  00675C  EF94  F033         	goto	l3534
  7746  006760                     u3970:
  7747  006760  0E00               	movlw	0
  7748  006762  6E4F               	movwf	___flmul@aexp^0,c
  7749  006764  AE4E               	btfss	(___flmul@grs+3)^0,7,c
  7750  006766  EFB7  F033         	goto	u3981
  7751  00676A  EFB9  F033         	goto	u3980
  7752  00676E                     u3981:
  7753  00676E  EFDD  F033         	goto	l1080
  7754  006772                     u3980:
  7755  006772  0EFF               	movlw	255
  7756  006774  144B               	andwf	___flmul@grs^0,w,c
  7757  006776  6E46               	movwf	??___flmul^0,c
  7758  006778  0EFF               	movlw	255
  7759  00677A  144C               	andwf	(___flmul@grs+1)^0,w,c
  7760  00677C  6E47               	movwf	(??___flmul+1)^0,c
  7761  00677E  0EFF               	movlw	255
  7762  006780  144D               	andwf	(___flmul@grs+2)^0,w,c
  7763  006782  6E48               	movwf	(??___flmul+2)^0,c
  7764  006784  0E7F               	movlw	127
  7765  006786  144E               	andwf	(___flmul@grs+3)^0,w,c
  7766  006788  6E49               	movwf	(??___flmul+3)^0,c
  7767  00678A  5046               	movf	??___flmul^0,w,c
  7768  00678C  1047               	iorwf	(??___flmul+1)^0,w,c
  7769  00678E  1048               	iorwf	(??___flmul+2)^0,w,c
  7770  006790  1049               	iorwf	(??___flmul+3)^0,w,c
  7771  006792  B4D8               	btfsc	status,2,c
  7772  006794  EFCE  F033         	goto	u3991
  7773  006798  EFD0  F033         	goto	u3990
  7774  00679C                     u3991:
  7775  00679C  EFD4  F033         	goto	l1081
  7776  0067A0                     u3990:
  7777  0067A0                     l3548:
  7778  0067A0  0E01               	movlw	1
  7779  0067A2  6E4F               	movwf	___flmul@aexp^0,c
  7780  0067A4  EFDD  F033         	goto	l1080
  7781  0067A8                     l1081:
  7782  0067A8  A051               	btfss	___flmul@prod^0,0,c
  7783  0067AA  EFD9  F033         	goto	u4001
  7784  0067AE  EFDB  F033         	goto	u4000
  7785  0067B2                     u4001:
  7786  0067B2  EFDD  F033         	goto	l1080
  7787  0067B6                     u4000:
  7788  0067B6  EFD0  F033         	goto	l3548
  7789  0067BA                     l1080:
  7790  0067BA  504F               	movf	___flmul@aexp^0,w,c
  7791  0067BC  B4D8               	btfsc	status,2,c
  7792  0067BE  EFE3  F033         	goto	u4011
  7793  0067C2  EFE5  F033         	goto	u4010
  7794  0067C6                     u4011:
  7795  0067C6  EF09  F034         	goto	l3560
  7796  0067CA                     u4010:
  7797  0067CA  0E01               	movlw	1
  7798  0067CC  2651               	addwf	___flmul@prod^0,f,c
  7799  0067CE  0E00               	movlw	0
  7800  0067D0  2252               	addwfc	(___flmul@prod+1)^0,f,c
  7801  0067D2  2253               	addwfc	(___flmul@prod+2)^0,f,c
  7802  0067D4  2254               	addwfc	(___flmul@prod+3)^0,f,c
  7803  0067D6  A054               	btfss	(___flmul@prod+3)^0,0,c
  7804  0067D8  EFF0  F033         	goto	u4021
  7805  0067DC  EFF2  F033         	goto	u4020
  7806  0067E0                     u4021:
  7807  0067E0  EF09  F034         	goto	l3560
  7808  0067E4                     u4020:
  7809  0067E4  C051  F046         	movff	___flmul@prod,??___flmul
  7810  0067E8  C052  F047         	movff	___flmul@prod+1,??___flmul+1
  7811  0067EC  C053  F048         	movff	___flmul@prod+2,??___flmul+2
  7812  0067F0  C054  F049         	movff	___flmul@prod+3,??___flmul+3
  7813  0067F4  3449               	rlcf	(??___flmul+3)^0,w,c
  7814  0067F6  3249               	rrcf	(??___flmul+3)^0,f,c
  7815  0067F8  3248               	rrcf	(??___flmul+2)^0,f,c
  7816  0067FA  3247               	rrcf	(??___flmul+1)^0,f,c
  7817  0067FC  3246               	rrcf	??___flmul^0,f,c
  7818  0067FE  C046  F051         	movff	??___flmul,___flmul@prod
  7819  006802  C047  F052         	movff	??___flmul+1,___flmul@prod+1
  7820  006806  C048  F053         	movff	??___flmul+2,___flmul@prod+2
  7821  00680A  C049  F054         	movff	??___flmul+3,___flmul@prod+3
  7822  00680E  4A55               	infsnz	___flmul@temp^0,f,c
  7823  006810  2A56               	incf	(___flmul@temp+1)^0,f,c
  7824  006812                     l3560:
  7825  006812  BE56               	btfsc	(___flmul@temp+1)^0,7,c
  7826  006814  EF14  F034         	goto	u4031
  7827  006818  5056               	movf	(___flmul@temp+1)^0,w,c
  7828  00681A  E108               	bnz	u4030
  7829  00681C  2855               	incf	___flmul@temp^0,w,c
  7830  00681E  A0D8               	btfss	status,0,c
  7831  006820  EF14  F034         	goto	u4031
  7832  006824  EF16  F034         	goto	u4030
  7833  006828                     u4031:
  7834  006828  EF20  F034         	goto	l3564
  7835  00682C                     u4030:
  7836  00682C  0E00               	movlw	0
  7837  00682E  6E51               	movwf	___flmul@prod^0,c
  7838  006830  0E00               	movlw	0
  7839  006832  6E52               	movwf	(___flmul@prod+1)^0,c
  7840  006834  0E80               	movlw	128
  7841  006836  6E53               	movwf	(___flmul@prod+2)^0,c
  7842  006838  0E7F               	movlw	127
  7843  00683A  6E54               	movwf	(___flmul@prod+3)^0,c
  7844  00683C  EF4E  F034         	goto	l3576
  7845  006840                     l3564:
  7846  006840  BE56               	btfsc	(___flmul@temp+1)^0,7,c
  7847  006842  EF2D  F034         	goto	u4040
  7848  006846  5056               	movf	(___flmul@temp+1)^0,w,c
  7849  006848  E106               	bnz	u4041
  7850  00684A  0455               	decf	___flmul@temp^0,w,c
  7851  00684C  B0D8               	btfsc	status,0,c
  7852  00684E  EF2B  F034         	goto	u4041
  7853  006852  EF2D  F034         	goto	u4040
  7854  006856                     u4041:
  7855  006856  EF39  F034         	goto	l1088
  7856  00685A                     u4040:
  7857  00685A  0E00               	movlw	0
  7858  00685C  6E51               	movwf	___flmul@prod^0,c
  7859  00685E  0E00               	movlw	0
  7860  006860  6E52               	movwf	(___flmul@prod+1)^0,c
  7861  006862  0E00               	movlw	0
  7862  006864  6E53               	movwf	(___flmul@prod+2)^0,c
  7863  006866  0E00               	movlw	0
  7864  006868  6E54               	movwf	(___flmul@prod+3)^0,c
  7865  00686A  0E00               	movlw	0
  7866  00686C  6E4A               	movwf	___flmul@sign^0,c
  7867  00686E  EF4E  F034         	goto	l3576
  7868  006872                     l1088:
  7869  006872  C055  F050         	movff	___flmul@temp,___flmul@bexp
  7870  006876  0EFF               	movlw	255
  7871  006878  1651               	andwf	___flmul@prod^0,f,c
  7872  00687A  0EFF               	movlw	255
  7873  00687C  1652               	andwf	(___flmul@prod+1)^0,f,c
  7874  00687E  0E7F               	movlw	127
  7875  006880  1653               	andwf	(___flmul@prod+2)^0,f,c
  7876  006882  0E00               	movlw	0
  7877  006884  1654               	andwf	(___flmul@prod+3)^0,f,c
  7878  006886  A050               	btfss	___flmul@bexp^0,0,c
  7879  006888  EF48  F034         	goto	u4051
  7880  00688C  EF4A  F034         	goto	u4050
  7881  006890                     u4051:
  7882  006890  EF4B  F034         	goto	l3574
  7883  006894                     u4050:
  7884  006894  8E53               	bsf	(___flmul@prod+2)^0,7,c
  7885  006896                     l3574:
  7886  006896  90D8               	bcf	status,0,c
  7887  006898  3050               	rrcf	___flmul@bexp^0,w,c
  7888  00689A  6E54               	movwf	(___flmul@prod+3)^0,c
  7889  00689C                     l3576:
  7890  00689C  504A               	movf	___flmul@sign^0,w,c
  7891  00689E  1254               	iorwf	(___flmul@prod+3)^0,f,c
  7892  0068A0  C051  F03E         	movff	___flmul@prod,?___flmul
  7893  0068A4  C052  F03F         	movff	___flmul@prod+1,?___flmul+1
  7894  0068A8  C053  F040         	movff	___flmul@prod+2,?___flmul+2
  7895  0068AC  C054  F041         	movff	___flmul@prod+3,?___flmul+3
  7896  0068B0                     l1075:
  7897  0068B0  0012               	return		;funcret
  7898  0068B2                     __end_of___flmul:
  7899                           	callstack 0
  7900                           
  7901 ;; *************** function _rgbInit *****************
  7902 ;; Defined at:
  7903 ;;		line 45 in file "rgb.c"
  7904 ;; Parameters:    Size  Location     Type
  7905 ;;		None
  7906 ;; Auto vars:     Size  Location     Type
  7907 ;;		None
  7908 ;; Return value:  Size  Location     Type
  7909 ;;                  1    wreg      void 
  7910 ;; Registers used:
  7911 ;;		wreg, status,2, status,0, cstack
  7912 ;; Tracked objects:
  7913 ;;		On entry : 0/0
  7914 ;;		On exit  : 0/0
  7915 ;;		Unchanged: 0/0
  7916 ;; Data sizes:     COMRAM   BANK0   BANK1   BANK2   BANK3   BANK4   BANK5
  7917 ;;      Params:         0       0       0       0       0       0       0
  7918 ;;      Locals:         0       0       0       0       0       0       0
  7919 ;;      Temps:          0       0       0       0       0       0       0
  7920 ;;      Totals:         0       0       0       0       0       0       0
  7921 ;;Total ram usage:        0 bytes
  7922 ;; Hardware stack levels used: 1
  7923 ;; Hardware stack levels required when called: 1
  7924 ;; This function calls:
  7925 ;;		_pinMode
  7926 ;; This function is called by:
  7927 ;;		_main
  7928 ;; This function uses a non-reentrant model
  7929 ;;
  7930                           
  7931                           	psect	text31
  7932  004D0E                     __ptext31:
  7933                           	callstack 0
  7934  004D0E                     _rgbInit:
  7935                           	callstack 29
  7936  004D0E                     
  7937                           ;rgb.c: 46:  pinMode(PIN_D0, 0);
  7938  004D0E  0E00               	movlw	0
  7939  004D10  6E02               	movwf	(pinMode@pin+1)^0,c
  7940  004D12  0E18               	movlw	24
  7941  004D14  6E01               	movwf	pinMode@pin^0,c
  7942  004D16  0E00               	movlw	0
  7943  004D18  6E04               	movwf	(pinMode@type+1)^0,c
  7944  004D1A  0E00               	movlw	0
  7945  004D1C  6E03               	movwf	pinMode@type^0,c
  7946  004D1E  EC29  F02E         	call	_pinMode	;wreg free
  7947                           
  7948                           ;rgb.c: 47:  pinMode(PIN_D1, 0);
  7949  004D22  0E00               	movlw	0
  7950  004D24  6E02               	movwf	(pinMode@pin+1)^0,c
  7951  004D26  0E19               	movlw	25
  7952  004D28  6E01               	movwf	pinMode@pin^0,c
  7953  004D2A  0E00               	movlw	0
  7954  004D2C  6E04               	movwf	(pinMode@type+1)^0,c
  7955  004D2E  0E00               	movlw	0
  7956  004D30  6E03               	movwf	pinMode@type^0,c
  7957  004D32  EC29  F02E         	call	_pinMode	;wreg free
  7958                           
  7959                           ;rgb.c: 48:  pinMode(PIN_D2, 0);
  7960  004D36  0E00               	movlw	0
  7961  004D38  6E02               	movwf	(pinMode@pin+1)^0,c
  7962  004D3A  0E1A               	movlw	26
  7963  004D3C  6E01               	movwf	pinMode@pin^0,c
  7964  004D3E  0E00               	movlw	0
  7965  004D40  6E04               	movwf	(pinMode@type+1)^0,c
  7966  004D42  0E00               	movlw	0
  7967  004D44  6E03               	movwf	pinMode@type^0,c
  7968  004D46  EC29  F02E         	call	_pinMode	;wreg free
  7969  004D4A  0012               	return		;funcret
  7970  004D4C                     __end_of_rgbInit:
  7971                           	callstack 0
  7972                           
  7973 ;; *************** function _lcdInit *****************
  7974 ;; Defined at:
  7975 ;;		line 72 in file "lcd.c"
  7976 ;; Parameters:    Size  Location     Type
  7977 ;;		None
  7978 ;; Auto vars:     Size  Location     Type
  7979 ;;		None
  7980 ;; Return value:  Size  Location     Type
  7981 ;;                  1    wreg      void 
  7982 ;; Registers used:
  7983 ;;		wreg, status,2, status,0, cstack
  7984 ;; Tracked objects:
  7985 ;;		On entry : 0/0
  7986 ;;		On exit  : 0/0
  7987 ;;		Unchanged: 0/0
  7988 ;; Data sizes:     COMRAM   BANK0   BANK1   BANK2   BANK3   BANK4   BANK5
  7989 ;;      Params:         0       0       0       0       0       0       0
  7990 ;;      Locals:         0       0       0       0       0       0       0
  7991 ;;      Temps:          0       0       0       0       0       0       0
  7992 ;;      Totals:         0       0       0       0       0       0       0
  7993 ;;Total ram usage:        0 bytes
  7994 ;; Hardware stack levels used: 1
  7995 ;; Hardware stack levels required when called: 5
  7996 ;; This function calls:
  7997 ;;		_delayMicro
  7998 ;;		_delayMili
  7999 ;;		_lcdCommand
  8000 ;;		_pinMode
  8001 ;;		_pushNibble
  8002 ;;		_soInit
  8003 ;; This function is called by:
  8004 ;;		_main
  8005 ;; This function uses a non-reentrant model
  8006 ;;
  8007                           
  8008                           	psect	text32
  8009  00530E                     __ptext32:
  8010                           	callstack 0
  8011  00530E                     _lcdInit:
  8012                           	callstack 25
  8013  00530E                     
  8014                           ;lcd.c: 73:  pinMode(PIN_D4, 0);
  8015  00530E  0E00               	movlw	0
  8016  005310  6E02               	movwf	(pinMode@pin+1)^0,c
  8017  005312  0E1C               	movlw	28
  8018  005314  6E01               	movwf	pinMode@pin^0,c
  8019  005316  0E00               	movlw	0
  8020  005318  6E04               	movwf	(pinMode@type+1)^0,c
  8021  00531A  0E00               	movlw	0
  8022  00531C  6E03               	movwf	pinMode@type^0,c
  8023  00531E  EC29  F02E         	call	_pinMode	;wreg free
  8024                           
  8025                           ;lcd.c: 74:  pinMode(PIN_D5, 0);
  8026  005322  0E00               	movlw	0
  8027  005324  6E02               	movwf	(pinMode@pin+1)^0,c
  8028  005326  0E1D               	movlw	29
  8029  005328  6E01               	movwf	pinMode@pin^0,c
  8030  00532A  0E00               	movlw	0
  8031  00532C  6E04               	movwf	(pinMode@type+1)^0,c
  8032  00532E  0E00               	movlw	0
  8033  005330  6E03               	movwf	pinMode@type^0,c
  8034  005332  EC29  F02E         	call	_pinMode	;wreg free
  8035                           
  8036                           ;lcd.c: 75:  soInit();
  8037  005336  EC68  F026         	call	_soInit	;wreg free
  8038                           
  8039                           ;lcd.c: 76:  delayMili(15);
  8040  00533A  0E00               	movlw	0
  8041  00533C  6E02               	movwf	(delayMili@a+1)^0,c
  8042  00533E  0E0F               	movlw	15
  8043  005340  6E01               	movwf	delayMili@a^0,c
  8044  005342  EC37  F026         	call	_delayMili	;wreg free
  8045                           
  8046                           ;lcd.c: 78:  pushNibble(0x03, 0);
  8047  005346  0E00               	movlw	0
  8048  005348  6E0B               	movwf	(pushNibble@rs+1)^0,c
  8049  00534A  0E00               	movlw	0
  8050  00534C  6E0A               	movwf	pushNibble@rs^0,c
  8051  00534E  0E03               	movlw	3
  8052  005350  ECE7  F025         	call	_pushNibble
  8053                           
  8054                           ;lcd.c: 79:  delayMili(5);
  8055  005354  0E00               	movlw	0
  8056  005356  6E02               	movwf	(delayMili@a+1)^0,c
  8057  005358  0E05               	movlw	5
  8058  00535A  6E01               	movwf	delayMili@a^0,c
  8059  00535C  EC37  F026         	call	_delayMili	;wreg free
  8060                           
  8061                           ;lcd.c: 80:  pushNibble(0x03, 0);
  8062  005360  0E00               	movlw	0
  8063  005362  6E0B               	movwf	(pushNibble@rs+1)^0,c
  8064  005364  0E00               	movlw	0
  8065  005366  6E0A               	movwf	pushNibble@rs^0,c
  8066  005368  0E03               	movlw	3
  8067  00536A  ECE7  F025         	call	_pushNibble
  8068  00536E                     
  8069                           ;lcd.c: 81:  delayMicro(160);
  8070  00536E  0E00               	movlw	0
  8071  005370  6E02               	movwf	(delayMicro@a+1)^0,c
  8072  005372  0EA0               	movlw	160
  8073  005374  6E01               	movwf	delayMicro@a^0,c
  8074  005376  EC81  F025         	call	_delayMicro	;wreg free
  8075  00537A                     
  8076                           ;lcd.c: 82:  pushNibble(0x03, 0);
  8077  00537A  0E00               	movlw	0
  8078  00537C  6E0B               	movwf	(pushNibble@rs+1)^0,c
  8079  00537E  0E00               	movlw	0
  8080  005380  6E0A               	movwf	pushNibble@rs^0,c
  8081  005382  0E03               	movlw	3
  8082  005384  ECE7  F025         	call	_pushNibble
  8083                           
  8084                           ;lcd.c: 83:  delayMicro(160);
  8085  005388  0E00               	movlw	0
  8086  00538A  6E02               	movwf	(delayMicro@a+1)^0,c
  8087  00538C  0EA0               	movlw	160
  8088  00538E  6E01               	movwf	delayMicro@a^0,c
  8089  005390  EC81  F025         	call	_delayMicro	;wreg free
  8090  005394                     
  8091                           ;lcd.c: 85:  pushNibble(0x02, 0);
  8092  005394  0E00               	movlw	0
  8093  005396  6E0B               	movwf	(pushNibble@rs+1)^0,c
  8094  005398  0E00               	movlw	0
  8095  00539A  6E0A               	movwf	pushNibble@rs^0,c
  8096  00539C  0E02               	movlw	2
  8097  00539E  ECE7  F025         	call	_pushNibble
  8098  0053A2                     
  8099                           ;lcd.c: 86:  delayMili(10);
  8100  0053A2  0E00               	movlw	0
  8101  0053A4  6E02               	movwf	(delayMili@a+1)^0,c
  8102  0053A6  0E0A               	movlw	10
  8103  0053A8  6E01               	movwf	delayMili@a^0,c
  8104  0053AA  EC37  F026         	call	_delayMili	;wreg free
  8105  0053AE                     
  8106                           ;lcd.c: 88:  lcdCommand(0x28);
  8107  0053AE  0E28               	movlw	40
  8108  0053B0  ECA6  F025         	call	_lcdCommand
  8109  0053B4                     
  8110                           ;lcd.c: 89:  lcdCommand(0x08 + 0x04);
  8111  0053B4  0E0C               	movlw	12
  8112  0053B6  ECA6  F025         	call	_lcdCommand
  8113  0053BA                     
  8114                           ;lcd.c: 90:  lcdCommand(0x01);
  8115  0053BA  0E01               	movlw	1
  8116  0053BC  ECA6  F025         	call	_lcdCommand
  8117  0053C0  0012               	return		;funcret
  8118  0053C2                     __end_of_lcdInit:
  8119                           	callstack 0
  8120                           
  8121 ;; *************** function _pushNibble *****************
  8122 ;; Defined at:
  8123 ;;		line 25 in file "lcd.c"
  8124 ;; Parameters:    Size  Location     Type
  8125 ;;  value           1    wreg     unsigned char 
  8126 ;;  rs              2    9[COMRAM] int 
  8127 ;; Auto vars:     Size  Location     Type
  8128 ;;  value           1   11[COMRAM] unsigned char 
  8129 ;; Return value:  Size  Location     Type
  8130 ;;                  1    wreg      void 
  8131 ;; Registers used:
  8132 ;;		wreg, status,2, status,0, cstack
  8133 ;; Tracked objects:
  8134 ;;		On entry : 0/0
  8135 ;;		On exit  : 0/0
  8136 ;;		Unchanged: 0/0
  8137 ;; Data sizes:     COMRAM   BANK0   BANK1   BANK2   BANK3   BANK4   BANK5
  8138 ;;      Params:         2       0       0       0       0       0       0
  8139 ;;      Locals:         1       0       0       0       0       0       0
  8140 ;;      Temps:          0       0       0       0       0       0       0
  8141 ;;      Totals:         3       0       0       0       0       0       0
  8142 ;;Total ram usage:        3 bytes
  8143 ;; Hardware stack levels used: 1
  8144 ;; Hardware stack levels required when called: 3
  8145 ;; This function calls:
  8146 ;;		_digitalWrite
  8147 ;;		_pulseEnablePin
  8148 ;;		_soWrite
  8149 ;; This function is called by:
  8150 ;;		_lcdInit
  8151 ;; This function uses a non-reentrant model
  8152 ;;
  8153                           
  8154                           	psect	text33
  8155  004BCE                     __ptext33:
  8156                           	callstack 0
  8157  004BCE                     _pushNibble:
  8158                           	callstack 26
  8159                           
  8160                           ;incstack = 0
  8161                           ;pushNibble@value stored from wreg
  8162  004BCE  6E0C               	movwf	pushNibble@value^0,c
  8163  004BD0                     
  8164                           ;lcd.c: 26:  soWrite(value);
  8165  004BD0  C00C  F007         	movff	pushNibble@value,soWrite@value
  8166  004BD4  6A08               	clrf	(soWrite@value+1)^0,c
  8167  004BD6  ECE9  F026         	call	_soWrite	;wreg free
  8168                           
  8169                           ;lcd.c: 27:  digitalWrite(PIN_D5, rs);
  8170  004BDA  0E00               	movlw	0
  8171  004BDC  6E02               	movwf	(digitalWrite@pin+1)^0,c
  8172  004BDE  0E1D               	movlw	29
  8173  004BE0  6E01               	movwf	digitalWrite@pin^0,c
  8174  004BE2  C00A  F003         	movff	pushNibble@rs,digitalWrite@value
  8175  004BE6  C00B  F004         	movff	pushNibble@rs+1,digitalWrite@value+1
  8176  004BEA  EC50  F02F         	call	_digitalWrite	;wreg free
  8177                           
  8178                           ;lcd.c: 28:  pulseEnablePin();
  8179  004BEE  ECA6  F026         	call	_pulseEnablePin	;wreg free
  8180  004BF2  0012               	return		;funcret
  8181  004BF4                     __end_of_pushNibble:
  8182                           	callstack 0
  8183                           
  8184 ;; *************** function _lcdCommand *****************
  8185 ;; Defined at:
  8186 ;;		line 40 in file "lcd.c"
  8187 ;; Parameters:    Size  Location     Type
  8188 ;;  value           1    wreg     unsigned char 
  8189 ;; Auto vars:     Size  Location     Type
  8190 ;;  value           1   13[COMRAM] unsigned char 
  8191 ;; Return value:  Size  Location     Type
  8192 ;;                  1    wreg      void 
  8193 ;; Registers used:
  8194 ;;		wreg, status,2, status,0, cstack
  8195 ;; Tracked objects:
  8196 ;;		On entry : 0/0
  8197 ;;		On exit  : 0/0
  8198 ;;		Unchanged: 0/0
  8199 ;; Data sizes:     COMRAM   BANK0   BANK1   BANK2   BANK3   BANK4   BANK5
  8200 ;;      Params:         0       0       0       0       0       0       0
  8201 ;;      Locals:         1       0       0       0       0       0       0
  8202 ;;      Temps:          0       0       0       0       0       0       0
  8203 ;;      Totals:         1       0       0       0       0       0       0
  8204 ;;Total ram usage:        1 bytes
  8205 ;; Hardware stack levels used: 1
  8206 ;; Hardware stack levels required when called: 4
  8207 ;; This function calls:
  8208 ;;		_delayMili
  8209 ;;		_pushByte
  8210 ;; This function is called by:
  8211 ;;		_lcdInit
  8212 ;;		_main
  8213 ;;		_telaInicial
  8214 ;;		_opcaoInvalida
  8215 ;;		_abastecimentoBomba
  8216 ;;		_selecaoCombustivel
  8217 ;;		_lcdPosition
  8218 ;; This function uses a non-reentrant model
  8219 ;;
  8220                           
  8221                           	psect	text34
  8222  004B4C                     __ptext34:
  8223                           	callstack 0
  8224  004B4C                     _lcdCommand:
  8225                           	callstack 25
  8226                           
  8227                           ;incstack = 0
  8228                           ;lcdCommand@value stored from wreg
  8229  004B4C  6E0E               	movwf	lcdCommand@value^0,c
  8230  004B4E                     
  8231                           ;lcd.c: 41:  pushByte(value, 0);
  8232  004B4E  0E00               	movlw	0
  8233  004B50  6E0B               	movwf	(pushByte@rs+1)^0,c
  8234  004B52  0E00               	movlw	0
  8235  004B54  6E0A               	movwf	pushByte@rs^0,c
  8236  004B56  500E               	movf	lcdCommand@value^0,w,c
  8237  004B58  ECBA  F027         	call	_pushByte
  8238                           
  8239                           ;lcd.c: 42:  delayMili(2);
  8240  004B5C  0E00               	movlw	0
  8241  004B5E  6E02               	movwf	(delayMili@a+1)^0,c
  8242  004B60  0E02               	movlw	2
  8243  004B62  6E01               	movwf	delayMili@a^0,c
  8244  004B64  EC37  F026         	call	_delayMili	;wreg free
  8245  004B68  0012               	return		;funcret
  8246  004B6A                     __end_of_lcdCommand:
  8247                           	callstack 0
  8248                           
  8249 ;; *************** function _pushByte *****************
  8250 ;; Defined at:
  8251 ;;		line 31 in file "lcd.c"
  8252 ;; Parameters:    Size  Location     Type
  8253 ;;  value           1    wreg     unsigned char 
  8254 ;;  rs              2    9[COMRAM] int 
  8255 ;; Auto vars:     Size  Location     Type
  8256 ;;  value           1   12[COMRAM] unsigned char 
  8257 ;; Return value:  Size  Location     Type
  8258 ;;                  1    wreg      void 
  8259 ;; Registers used:
  8260 ;;		wreg, status,2, status,0, cstack
  8261 ;; Tracked objects:
  8262 ;;		On entry : 0/0
  8263 ;;		On exit  : 0/0
  8264 ;;		Unchanged: 0/0
  8265 ;; Data sizes:     COMRAM   BANK0   BANK1   BANK2   BANK3   BANK4   BANK5
  8266 ;;      Params:         2       0       0       0       0       0       0
  8267 ;;      Locals:         1       0       0       0       0       0       0
  8268 ;;      Temps:          1       0       0       0       0       0       0
  8269 ;;      Totals:         4       0       0       0       0       0       0
  8270 ;;Total ram usage:        4 bytes
  8271 ;; Hardware stack levels used: 1
  8272 ;; Hardware stack levels required when called: 3
  8273 ;; This function calls:
  8274 ;;		_digitalWrite
  8275 ;;		_pulseEnablePin
  8276 ;;		_soWrite
  8277 ;; This function is called by:
  8278 ;;		_lcdCommand
  8279 ;;		_lcdChar
  8280 ;; This function uses a non-reentrant model
  8281 ;;
  8282                           
  8283                           	psect	text35
  8284  004F74                     __ptext35:
  8285                           	callstack 0
  8286  004F74                     _pushByte:
  8287                           	callstack 24
  8288                           
  8289                           ;incstack = 0
  8290                           ;pushByte@value stored from wreg
  8291  004F74  6E0D               	movwf	pushByte@value^0,c
  8292  004F76                     
  8293                           ;lcd.c: 32:  soWrite(value >> 4);
  8294  004F76  C00D  F00C         	movff	pushByte@value,??_pushByte
  8295  004F7A  3A0C               	swapf	??_pushByte^0,f,c
  8296  004F7C  0E0F               	movlw	15
  8297  004F7E  160C               	andwf	??_pushByte^0,f,c
  8298  004F80  500C               	movf	??_pushByte^0,w,c
  8299  004F82  6E07               	movwf	soWrite@value^0,c
  8300  004F84  6A08               	clrf	(soWrite@value+1)^0,c
  8301  004F86  ECE9  F026         	call	_soWrite	;wreg free
  8302                           
  8303                           ;lcd.c: 33:  digitalWrite(PIN_D5, rs);
  8304  004F8A  0E00               	movlw	0
  8305  004F8C  6E02               	movwf	(digitalWrite@pin+1)^0,c
  8306  004F8E  0E1D               	movlw	29
  8307  004F90  6E01               	movwf	digitalWrite@pin^0,c
  8308  004F92  C00A  F003         	movff	pushByte@rs,digitalWrite@value
  8309  004F96  C00B  F004         	movff	pushByte@rs+1,digitalWrite@value+1
  8310  004F9A  EC50  F02F         	call	_digitalWrite	;wreg free
  8311                           
  8312                           ;lcd.c: 34:  pulseEnablePin();
  8313  004F9E  ECA6  F026         	call	_pulseEnablePin	;wreg free
  8314                           
  8315                           ;lcd.c: 36:  soWrite(value & 0x0F);
  8316  004FA2  C00D  F00C         	movff	pushByte@value,??_pushByte
  8317  004FA6  0E0F               	movlw	15
  8318  004FA8  160C               	andwf	??_pushByte^0,f,c
  8319  004FAA  500C               	movf	??_pushByte^0,w,c
  8320  004FAC  6E07               	movwf	soWrite@value^0,c
  8321  004FAE  6A08               	clrf	(soWrite@value+1)^0,c
  8322  004FB0  ECE9  F026         	call	_soWrite	;wreg free
  8323                           
  8324                           ;lcd.c: 37:  digitalWrite(PIN_D5, rs);
  8325  004FB4  0E00               	movlw	0
  8326  004FB6  6E02               	movwf	(digitalWrite@pin+1)^0,c
  8327  004FB8  0E1D               	movlw	29
  8328  004FBA  6E01               	movwf	digitalWrite@pin^0,c
  8329  004FBC  C00A  F003         	movff	pushByte@rs,digitalWrite@value
  8330  004FC0  C00B  F004         	movff	pushByte@rs+1,digitalWrite@value+1
  8331  004FC4  EC50  F02F         	call	_digitalWrite	;wreg free
  8332                           
  8333                           ;lcd.c: 38:  pulseEnablePin();
  8334  004FC8  ECA6  F026         	call	_pulseEnablePin	;wreg free
  8335  004FCC  0012               	return		;funcret
  8336  004FCE                     __end_of_pushByte:
  8337                           	callstack 0
  8338                           
  8339 ;; *************** function _soWrite *****************
  8340 ;; Defined at:
  8341 ;;		line 18 in file "so.c"
  8342 ;; Parameters:    Size  Location     Type
  8343 ;;  value           2    6[COMRAM] int 
  8344 ;; Auto vars:     Size  Location     Type
  8345 ;;  i               1    8[COMRAM] unsigned char 
  8346 ;; Return value:  Size  Location     Type
  8347 ;;                  1    wreg      void 
  8348 ;; Registers used:
  8349 ;;		wreg, status,2, status,0, cstack
  8350 ;; Tracked objects:
  8351 ;;		On entry : 0/0
  8352 ;;		On exit  : 0/0
  8353 ;;		Unchanged: 0/0
  8354 ;; Data sizes:     COMRAM   BANK0   BANK1   BANK2   BANK3   BANK4   BANK5
  8355 ;;      Params:         2       0       0       0       0       0       0
  8356 ;;      Locals:         1       0       0       0       0       0       0
  8357 ;;      Temps:          0       0       0       0       0       0       0
  8358 ;;      Totals:         3       0       0       0       0       0       0
  8359 ;;Total ram usage:        3 bytes
  8360 ;; Hardware stack levels used: 1
  8361 ;; Hardware stack levels required when called: 2
  8362 ;; This function calls:
  8363 ;;		_PulseClockData
  8364 ;;		_PulseEnClock
  8365 ;;		_digitalWrite
  8366 ;; This function is called by:
  8367 ;;		_kpDebounce
  8368 ;;		_pushNibble
  8369 ;;		_pushByte
  8370 ;;		_ssdUpdate
  8371 ;; This function uses a non-reentrant model
  8372 ;;
  8373                           
  8374                           	psect	text36
  8375  004DD2                     __ptext36:
  8376                           	callstack 0
  8377  004DD2                     _soWrite:
  8378                           	callstack 24
  8379  004DD2                     
  8380                           ;so.c: 19:  char i;;so.c: 20:  digitalWrite(PIN_B0, 0);
  8381  004DD2  0E00               	movlw	0
  8382  004DD4  6E02               	movwf	(digitalWrite@pin+1)^0,c
  8383  004DD6  0E08               	movlw	8
  8384  004DD8  6E01               	movwf	digitalWrite@pin^0,c
  8385  004DDA  0E00               	movlw	0
  8386  004DDC  6E04               	movwf	(digitalWrite@value+1)^0,c
  8387  004DDE  0E00               	movlw	0
  8388  004DE0  6E03               	movwf	digitalWrite@value^0,c
  8389  004DE2  EC50  F02F         	call	_digitalWrite	;wreg free
  8390  004DE6                     
  8391                           ;so.c: 21:  for (i = 0; i < 8; i++) {
  8392  004DE6  0E00               	movlw	0
  8393  004DE8  6E09               	movwf	soWrite@i^0,c
  8394  004DEA                     l2574:
  8395                           
  8396                           ;so.c: 22:   digitalWrite(PIN_D6, value & 0x80);
  8397  004DEA  0E00               	movlw	0
  8398  004DEC  6E02               	movwf	(digitalWrite@pin+1)^0,c
  8399  004DEE  0E1E               	movlw	30
  8400  004DF0  6E01               	movwf	digitalWrite@pin^0,c
  8401  004DF2  0E80               	movlw	128
  8402  004DF4  1407               	andwf	soWrite@value^0,w,c
  8403  004DF6  6E03               	movwf	digitalWrite@value^0,c
  8404  004DF8  6A04               	clrf	(digitalWrite@value+1)^0,c
  8405  004DFA  EC50  F02F         	call	_digitalWrite	;wreg free
  8406                           
  8407                           ;so.c: 23:   PulseClockData();
  8408  004DFE  EC0D  F026         	call	_PulseClockData	;wreg free
  8409  004E02                     
  8410                           ;so.c: 24:   value <<= 1;
  8411  004E02  90D8               	bcf	status,0,c
  8412  004E04  3607               	rlcf	soWrite@value^0,f,c
  8413  004E06  3608               	rlcf	(soWrite@value+1)^0,f,c
  8414  004E08                     
  8415                           ;so.c: 25:  }
  8416  004E08  2A09               	incf	soWrite@i^0,f,c
  8417  004E0A  0E07               	movlw	7
  8418  004E0C  6409               	cpfsgt	soWrite@i^0,c
  8419  004E0E  EF0B  F027         	goto	u2401
  8420  004E12  EF0D  F027         	goto	u2400
  8421  004E16                     u2401:
  8422  004E16  EFF5  F026         	goto	l2574
  8423  004E1A                     u2400:
  8424  004E1A                     
  8425                           ;so.c: 26:  PulseEnClock();
  8426  004E1A  EC22  F026         	call	_PulseEnClock	;wreg free
  8427  004E1E  0012               	return		;funcret
  8428  004E20                     __end_of_soWrite:
  8429                           	callstack 0
  8430                           
  8431 ;; *************** function _PulseEnClock *****************
  8432 ;; Defined at:
  8433 ;;		line 9 in file "so.c"
  8434 ;; Parameters:    Size  Location     Type
  8435 ;;		None
  8436 ;; Auto vars:     Size  Location     Type
  8437 ;;		None
  8438 ;; Return value:  Size  Location     Type
  8439 ;;                  1    wreg      void 
  8440 ;; Registers used:
  8441 ;;		wreg, status,2, status,0, cstack
  8442 ;; Tracked objects:
  8443 ;;		On entry : 0/0
  8444 ;;		On exit  : 0/0
  8445 ;;		Unchanged: 0/0
  8446 ;; Data sizes:     COMRAM   BANK0   BANK1   BANK2   BANK3   BANK4   BANK5
  8447 ;;      Params:         0       0       0       0       0       0       0
  8448 ;;      Locals:         0       0       0       0       0       0       0
  8449 ;;      Temps:          0       0       0       0       0       0       0
  8450 ;;      Totals:         0       0       0       0       0       0       0
  8451 ;;Total ram usage:        0 bytes
  8452 ;; Hardware stack levels used: 1
  8453 ;; Hardware stack levels required when called: 1
  8454 ;; This function calls:
  8455 ;;		_digitalWrite
  8456 ;; This function is called by:
  8457 ;;		_soWrite
  8458 ;; This function uses a non-reentrant model
  8459 ;;
  8460                           
  8461                           	psect	text37
  8462  004C44                     __ptext37:
  8463                           	callstack 0
  8464  004C44                     _PulseEnClock:
  8465                           	callstack 24
  8466  004C44                     
  8467                           ;so.c: 10:  digitalWrite(PIN_D7, 1);
  8468  004C44  0E00               	movlw	0
  8469  004C46  6E02               	movwf	(digitalWrite@pin+1)^0,c
  8470  004C48  0E1F               	movlw	31
  8471  004C4A  6E01               	movwf	digitalWrite@pin^0,c
  8472  004C4C  0E00               	movlw	0
  8473  004C4E  6E04               	movwf	(digitalWrite@value+1)^0,c
  8474  004C50  0E01               	movlw	1
  8475  004C52  6E03               	movwf	digitalWrite@value^0,c
  8476  004C54  EC50  F02F         	call	_digitalWrite	;wreg free
  8477                           
  8478                           ;so.c: 11:  digitalWrite(PIN_D7, 0);
  8479  004C58  0E00               	movlw	0
  8480  004C5A  6E02               	movwf	(digitalWrite@pin+1)^0,c
  8481  004C5C  0E1F               	movlw	31
  8482  004C5E  6E01               	movwf	digitalWrite@pin^0,c
  8483  004C60  0E00               	movlw	0
  8484  004C62  6E04               	movwf	(digitalWrite@value+1)^0,c
  8485  004C64  0E00               	movlw	0
  8486  004C66  6E03               	movwf	digitalWrite@value^0,c
  8487  004C68  EC50  F02F         	call	_digitalWrite	;wreg free
  8488  004C6C  0012               	return		;funcret
  8489  004C6E                     __end_of_PulseEnClock:
  8490                           	callstack 0
  8491                           
  8492 ;; *************** function _PulseClockData *****************
  8493 ;; Defined at:
  8494 ;;		line 14 in file "so.c"
  8495 ;; Parameters:    Size  Location     Type
  8496 ;;		None
  8497 ;; Auto vars:     Size  Location     Type
  8498 ;;		None
  8499 ;; Return value:  Size  Location     Type
  8500 ;;                  1    wreg      void 
  8501 ;; Registers used:
  8502 ;;		wreg, status,2, status,0, cstack
  8503 ;; Tracked objects:
  8504 ;;		On entry : 0/0
  8505 ;;		On exit  : 0/0
  8506 ;;		Unchanged: 0/0
  8507 ;; Data sizes:     COMRAM   BANK0   BANK1   BANK2   BANK3   BANK4   BANK5
  8508 ;;      Params:         0       0       0       0       0       0       0
  8509 ;;      Locals:         0       0       0       0       0       0       0
  8510 ;;      Temps:          0       0       0       0       0       0       0
  8511 ;;      Totals:         0       0       0       0       0       0       0
  8512 ;;Total ram usage:        0 bytes
  8513 ;; Hardware stack levels used: 1
  8514 ;; Hardware stack levels required when called: 1
  8515 ;; This function calls:
  8516 ;;		_digitalWrite
  8517 ;; This function is called by:
  8518 ;;		_soWrite
  8519 ;; This function uses a non-reentrant model
  8520 ;;
  8521                           
  8522                           	psect	text38
  8523  004C1A                     __ptext38:
  8524                           	callstack 0
  8525  004C1A                     _PulseClockData:
  8526                           	callstack 24
  8527  004C1A                     
  8528                           ;so.c: 15:  digitalWrite(PIN_B0, 1);
  8529  004C1A  0E00               	movlw	0
  8530  004C1C  6E02               	movwf	(digitalWrite@pin+1)^0,c
  8531  004C1E  0E08               	movlw	8
  8532  004C20  6E01               	movwf	digitalWrite@pin^0,c
  8533  004C22  0E00               	movlw	0
  8534  004C24  6E04               	movwf	(digitalWrite@value+1)^0,c
  8535  004C26  0E01               	movlw	1
  8536  004C28  6E03               	movwf	digitalWrite@value^0,c
  8537  004C2A  EC50  F02F         	call	_digitalWrite	;wreg free
  8538                           
  8539                           ;so.c: 16:  digitalWrite(PIN_B0, 0);
  8540  004C2E  0E00               	movlw	0
  8541  004C30  6E02               	movwf	(digitalWrite@pin+1)^0,c
  8542  004C32  0E08               	movlw	8
  8543  004C34  6E01               	movwf	digitalWrite@pin^0,c
  8544  004C36  0E00               	movlw	0
  8545  004C38  6E04               	movwf	(digitalWrite@value+1)^0,c
  8546  004C3A  0E00               	movlw	0
  8547  004C3C  6E03               	movwf	digitalWrite@value^0,c
  8548  004C3E  EC50  F02F         	call	_digitalWrite	;wreg free
  8549  004C42  0012               	return		;funcret
  8550  004C44                     __end_of_PulseClockData:
  8551                           	callstack 0
  8552                           
  8553 ;; *************** function _pulseEnablePin *****************
  8554 ;; Defined at:
  8555 ;;		line 18 in file "lcd.c"
  8556 ;; Parameters:    Size  Location     Type
  8557 ;;		None
  8558 ;; Auto vars:     Size  Location     Type
  8559 ;;		None
  8560 ;; Return value:  Size  Location     Type
  8561 ;;                  1    wreg      void 
  8562 ;; Registers used:
  8563 ;;		wreg, status,2, status,0, cstack
  8564 ;; Tracked objects:
  8565 ;;		On entry : 0/0
  8566 ;;		On exit  : 0/0
  8567 ;;		Unchanged: 0/0
  8568 ;; Data sizes:     COMRAM   BANK0   BANK1   BANK2   BANK3   BANK4   BANK5
  8569 ;;      Params:         0       0       0       0       0       0       0
  8570 ;;      Locals:         0       0       0       0       0       0       0
  8571 ;;      Temps:          0       0       0       0       0       0       0
  8572 ;;      Totals:         0       0       0       0       0       0       0
  8573 ;;Total ram usage:        0 bytes
  8574 ;; Hardware stack levels used: 1
  8575 ;; Hardware stack levels required when called: 1
  8576 ;; This function calls:
  8577 ;;		_delayMicro
  8578 ;;		_digitalWrite
  8579 ;; This function is called by:
  8580 ;;		_pushNibble
  8581 ;;		_pushByte
  8582 ;; This function uses a non-reentrant model
  8583 ;;
  8584                           
  8585                           	psect	text39
  8586  004D4C                     __ptext39:
  8587                           	callstack 0
  8588  004D4C                     _pulseEnablePin:
  8589                           	callstack 25
  8590  004D4C                     
  8591                           ;lcd.c: 19:  digitalWrite(PIN_D4, 1);
  8592  004D4C  0E00               	movlw	0
  8593  004D4E  6E02               	movwf	(digitalWrite@pin+1)^0,c
  8594  004D50  0E1C               	movlw	28
  8595  004D52  6E01               	movwf	digitalWrite@pin^0,c
  8596  004D54  0E00               	movlw	0
  8597  004D56  6E04               	movwf	(digitalWrite@value+1)^0,c
  8598  004D58  0E01               	movlw	1
  8599  004D5A  6E03               	movwf	digitalWrite@value^0,c
  8600  004D5C  EC50  F02F         	call	_digitalWrite	;wreg free
  8601  004D60                     
  8602                           ;lcd.c: 20:  delayMicro(5);
  8603  004D60  0E00               	movlw	0
  8604  004D62  6E02               	movwf	(delayMicro@a+1)^0,c
  8605  004D64  0E05               	movlw	5
  8606  004D66  6E01               	movwf	delayMicro@a^0,c
  8607  004D68  EC81  F025         	call	_delayMicro	;wreg free
  8608  004D6C                     
  8609                           ;lcd.c: 21:  digitalWrite(PIN_D4, 0);
  8610  004D6C  0E00               	movlw	0
  8611  004D6E  6E02               	movwf	(digitalWrite@pin+1)^0,c
  8612  004D70  0E1C               	movlw	28
  8613  004D72  6E01               	movwf	digitalWrite@pin^0,c
  8614  004D74  0E00               	movlw	0
  8615  004D76  6E04               	movwf	(digitalWrite@value+1)^0,c
  8616  004D78  0E00               	movlw	0
  8617  004D7A  6E03               	movwf	digitalWrite@value^0,c
  8618  004D7C  EC50  F02F         	call	_digitalWrite	;wreg free
  8619                           
  8620                           ;lcd.c: 22:  delayMicro(5);
  8621  004D80  0E00               	movlw	0
  8622  004D82  6E02               	movwf	(delayMicro@a+1)^0,c
  8623  004D84  0E05               	movlw	5
  8624  004D86  6E01               	movwf	delayMicro@a^0,c
  8625  004D88  EC81  F025         	call	_delayMicro	;wreg free
  8626  004D8C  0012               	return		;funcret
  8627  004D8E                     __end_of_pulseEnablePin:
  8628                           	callstack 0
  8629                           
  8630 ;; *************** function _digitalWrite *****************
  8631 ;; Defined at:
  8632 ;;		line 14 in file "io.c"
  8633 ;; Parameters:    Size  Location     Type
  8634 ;;  pin             2    0[COMRAM] int 
  8635 ;;  value           2    2[COMRAM] int 
  8636 ;; Auto vars:     Size  Location     Type
  8637 ;;		None
  8638 ;; Return value:  Size  Location     Type
  8639 ;;                  1    wreg      void 
  8640 ;; Registers used:
  8641 ;;		wreg, status,2, status,0
  8642 ;; Tracked objects:
  8643 ;;		On entry : 0/0
  8644 ;;		On exit  : 0/0
  8645 ;;		Unchanged: 0/0
  8646 ;; Data sizes:     COMRAM   BANK0   BANK1   BANK2   BANK3   BANK4   BANK5
  8647 ;;      Params:         4       0       0       0       0       0       0
  8648 ;;      Locals:         0       0       0       0       0       0       0
  8649 ;;      Temps:          2       0       0       0       0       0       0
  8650 ;;      Totals:         6       0       0       0       0       0       0
  8651 ;;Total ram usage:        6 bytes
  8652 ;; Hardware stack levels used: 1
  8653 ;; This function calls:
  8654 ;;		Nothing
  8655 ;; This function is called by:
  8656 ;;		_pulseEnablePin
  8657 ;;		_pushNibble
  8658 ;;		_pushByte
  8659 ;;		_rgbColor
  8660 ;;		_PulseEnClock
  8661 ;;		_PulseClockData
  8662 ;;		_soWrite
  8663 ;;		_ssdUpdate
  8664 ;;		_abastecimentoBomba
  8665 ;;		_turnOn
  8666 ;;		_turnOff
  8667 ;; This function uses a non-reentrant model
  8668 ;;
  8669                           
  8670                           	psect	text40
  8671  005EA0                     __ptext40:
  8672                           	callstack 0
  8673  005EA0                     _digitalWrite:
  8674                           	callstack 28
  8675  005EA0                     
  8676                           ;io.c: 16:     if(pin <8){
  8677  005EA0  BE02               	btfsc	(digitalWrite@pin+1)^0,7,c
  8678  005EA2  EF5E  F02F         	goto	u2200
  8679  005EA6  5002               	movf	(digitalWrite@pin+1)^0,w,c
  8680  005EA8  E107               	bnz	u2201
  8681  005EAA  0E08               	movlw	8
  8682  005EAC  5C01               	subwf	digitalWrite@pin^0,w,c
  8683  005EAE  B0D8               	btfsc	status,0,c
  8684  005EB0  EF5C  F02F         	goto	u2201
  8685  005EB4  EF5E  F02F         	goto	u2200
  8686  005EB8                     u2201:
  8687  005EB8  EF88  F02F         	goto	l2530
  8688  005EBC                     u2200:
  8689  005EBC                     
  8690                           ;io.c: 17:         if (value){ ((PORTA) |= (1<<(pin)));}
  8691  005EBC  5003               	movf	digitalWrite@value^0,w,c
  8692  005EBE  1004               	iorwf	(digitalWrite@value+1)^0,w,c
  8693  005EC0  B4D8               	btfsc	status,2,c
  8694  005EC2  EF65  F02F         	goto	u2211
  8695  005EC6  EF67  F02F         	goto	u2210
  8696  005ECA                     u2211:
  8697  005ECA  EF77  F02F         	goto	l2528
  8698  005ECE                     u2210:
  8699  005ECE  C001  F005         	movff	digitalWrite@pin,??_digitalWrite
  8700  005ED2  0E01               	movlw	1
  8701  005ED4  6E06               	movwf	(??_digitalWrite+1)^0,c
  8702  005ED6  2A05               	incf	??_digitalWrite^0,f,c
  8703  005ED8  EF70  F02F         	goto	u2224
  8704  005EDC                     u2225:
  8705  005EDC  90D8               	bcf	status,0,c
  8706  005EDE  3606               	rlcf	(??_digitalWrite+1)^0,f,c
  8707  005EE0                     u2224:
  8708  005EE0  2E05               	decfsz	??_digitalWrite^0,f,c
  8709  005EE2  EF6E  F02F         	goto	u2225
  8710  005EE6  5006               	movf	(??_digitalWrite+1)^0,w,c
  8711  005EE8  1280               	iorwf	128,f,c	;volatile
  8712  005EEA  EF76  F030         	goto	l226
  8713  005EEE                     l2528:
  8714  005EEE  C001  F005         	movff	digitalWrite@pin,??_digitalWrite
  8715  005EF2  0E01               	movlw	1
  8716  005EF4  6E06               	movwf	(??_digitalWrite+1)^0,c
  8717  005EF6  2A05               	incf	??_digitalWrite^0,f,c
  8718  005EF8  EF80  F02F         	goto	u2234
  8719  005EFC                     u2235:
  8720  005EFC  90D8               	bcf	status,0,c
  8721  005EFE  3606               	rlcf	(??_digitalWrite+1)^0,f,c
  8722  005F00                     u2234:
  8723  005F00  2E05               	decfsz	??_digitalWrite^0,f,c
  8724  005F02  EF7E  F02F         	goto	u2235
  8725  005F06  5006               	movf	(??_digitalWrite+1)^0,w,c
  8726  005F08  0AFF               	xorlw	255
  8727  005F0A  1680               	andwf	128,f,c	;volatile
  8728  005F0C  EF76  F030         	goto	l226
  8729  005F10                     l2530:
  8730  005F10  BE02               	btfsc	(digitalWrite@pin+1)^0,7,c
  8731  005F12  EF96  F02F         	goto	u2240
  8732  005F16  5002               	movf	(digitalWrite@pin+1)^0,w,c
  8733  005F18  E107               	bnz	u2241
  8734  005F1A  0E10               	movlw	16
  8735  005F1C  5C01               	subwf	digitalWrite@pin^0,w,c
  8736  005F1E  B0D8               	btfsc	status,0,c
  8737  005F20  EF94  F02F         	goto	u2241
  8738  005F24  EF96  F02F         	goto	u2240
  8739  005F28                     u2241:
  8740  005F28  EFC4  F02F         	goto	l2538
  8741  005F2C                     u2240:
  8742  005F2C                     
  8743                           ;io.c: 20:         pin -=8;
  8744  005F2C  0EF8               	movlw	248
  8745  005F2E  2601               	addwf	digitalWrite@pin^0,f,c
  8746  005F30  0EFF               	movlw	255
  8747  005F32  2202               	addwfc	(digitalWrite@pin+1)^0,f,c
  8748                           
  8749                           ;io.c: 21:         if (value){ ((PORTB) |= (1<<(pin)));}
  8750  005F34  5003               	movf	digitalWrite@value^0,w,c
  8751  005F36  1004               	iorwf	(digitalWrite@value+1)^0,w,c
  8752  005F38  B4D8               	btfsc	status,2,c
  8753  005F3A  EFA1  F02F         	goto	u2251
  8754  005F3E  EFA3  F02F         	goto	u2250
  8755  005F42                     u2251:
  8756  005F42  EFB3  F02F         	goto	l2536
  8757  005F46                     u2250:
  8758  005F46  C001  F005         	movff	digitalWrite@pin,??_digitalWrite
  8759  005F4A  0E01               	movlw	1
  8760  005F4C  6E06               	movwf	(??_digitalWrite+1)^0,c
  8761  005F4E  2A05               	incf	??_digitalWrite^0,f,c
  8762  005F50  EFAC  F02F         	goto	u2264
  8763  005F54                     u2265:
  8764  005F54  90D8               	bcf	status,0,c
  8765  005F56  3606               	rlcf	(??_digitalWrite+1)^0,f,c
  8766  005F58                     u2264:
  8767  005F58  2E05               	decfsz	??_digitalWrite^0,f,c
  8768  005F5A  EFAA  F02F         	goto	u2265
  8769  005F5E  5006               	movf	(??_digitalWrite+1)^0,w,c
  8770  005F60  1281               	iorwf	129,f,c	;volatile
  8771  005F62  EF76  F030         	goto	l226
  8772  005F66                     l2536:
  8773  005F66  C001  F005         	movff	digitalWrite@pin,??_digitalWrite
  8774  005F6A  0E01               	movlw	1
  8775  005F6C  6E06               	movwf	(??_digitalWrite+1)^0,c
  8776  005F6E  2A05               	incf	??_digitalWrite^0,f,c
  8777  005F70  EFBC  F02F         	goto	u2274
  8778  005F74                     u2275:
  8779  005F74  90D8               	bcf	status,0,c
  8780  005F76  3606               	rlcf	(??_digitalWrite+1)^0,f,c
  8781  005F78                     u2274:
  8782  005F78  2E05               	decfsz	??_digitalWrite^0,f,c
  8783  005F7A  EFBA  F02F         	goto	u2275
  8784  005F7E  5006               	movf	(??_digitalWrite+1)^0,w,c
  8785  005F80  0AFF               	xorlw	255
  8786  005F82  1681               	andwf	129,f,c	;volatile
  8787  005F84  EF76  F030         	goto	l226
  8788  005F88                     l2538:
  8789  005F88  BE02               	btfsc	(digitalWrite@pin+1)^0,7,c
  8790  005F8A  EFD2  F02F         	goto	u2280
  8791  005F8E  5002               	movf	(digitalWrite@pin+1)^0,w,c
  8792  005F90  E107               	bnz	u2281
  8793  005F92  0E18               	movlw	24
  8794  005F94  5C01               	subwf	digitalWrite@pin^0,w,c
  8795  005F96  B0D8               	btfsc	status,0,c
  8796  005F98  EFD0  F02F         	goto	u2281
  8797  005F9C  EFD2  F02F         	goto	u2280
  8798  005FA0                     u2281:
  8799  005FA0  EF00  F030         	goto	l2546
  8800  005FA4                     u2280:
  8801  005FA4                     
  8802                           ;io.c: 24:         pin -=16;
  8803  005FA4  0EF0               	movlw	240
  8804  005FA6  2601               	addwf	digitalWrite@pin^0,f,c
  8805  005FA8  0EFF               	movlw	255
  8806  005FAA  2202               	addwfc	(digitalWrite@pin+1)^0,f,c
  8807                           
  8808                           ;io.c: 25:         if (value){ ((PORTC) |= (1<<(pin)));}
  8809  005FAC  5003               	movf	digitalWrite@value^0,w,c
  8810  005FAE  1004               	iorwf	(digitalWrite@value+1)^0,w,c
  8811  005FB0  B4D8               	btfsc	status,2,c
  8812  005FB2  EFDD  F02F         	goto	u2291
  8813  005FB6  EFDF  F02F         	goto	u2290
  8814  005FBA                     u2291:
  8815  005FBA  EFEF  F02F         	goto	l2544
  8816  005FBE                     u2290:
  8817  005FBE  C001  F005         	movff	digitalWrite@pin,??_digitalWrite
  8818  005FC2  0E01               	movlw	1
  8819  005FC4  6E06               	movwf	(??_digitalWrite+1)^0,c
  8820  005FC6  2A05               	incf	??_digitalWrite^0,f,c
  8821  005FC8  EFE8  F02F         	goto	u2304
  8822  005FCC                     u2305:
  8823  005FCC  90D8               	bcf	status,0,c
  8824  005FCE  3606               	rlcf	(??_digitalWrite+1)^0,f,c
  8825  005FD0                     u2304:
  8826  005FD0  2E05               	decfsz	??_digitalWrite^0,f,c
  8827  005FD2  EFE6  F02F         	goto	u2305
  8828  005FD6  5006               	movf	(??_digitalWrite+1)^0,w,c
  8829  005FD8  1282               	iorwf	130,f,c	;volatile
  8830  005FDA  EF76  F030         	goto	l226
  8831  005FDE                     l2544:
  8832  005FDE  C001  F005         	movff	digitalWrite@pin,??_digitalWrite
  8833  005FE2  0E01               	movlw	1
  8834  005FE4  6E06               	movwf	(??_digitalWrite+1)^0,c
  8835  005FE6  2A05               	incf	??_digitalWrite^0,f,c
  8836  005FE8  EFF8  F02F         	goto	u2314
  8837  005FEC                     u2315:
  8838  005FEC  90D8               	bcf	status,0,c
  8839  005FEE  3606               	rlcf	(??_digitalWrite+1)^0,f,c
  8840  005FF0                     u2314:
  8841  005FF0  2E05               	decfsz	??_digitalWrite^0,f,c
  8842  005FF2  EFF6  F02F         	goto	u2315
  8843  005FF6  5006               	movf	(??_digitalWrite+1)^0,w,c
  8844  005FF8  0AFF               	xorlw	255
  8845  005FFA  1682               	andwf	130,f,c	;volatile
  8846  005FFC  EF76  F030         	goto	l226
  8847  006000                     l2546:
  8848  006000  BE02               	btfsc	(digitalWrite@pin+1)^0,7,c
  8849  006002  EF0E  F030         	goto	u2320
  8850  006006  5002               	movf	(digitalWrite@pin+1)^0,w,c
  8851  006008  E107               	bnz	u2321
  8852  00600A  0E20               	movlw	32
  8853  00600C  5C01               	subwf	digitalWrite@pin^0,w,c
  8854  00600E  B0D8               	btfsc	status,0,c
  8855  006010  EF0C  F030         	goto	u2321
  8856  006014  EF0E  F030         	goto	u2320
  8857  006018                     u2321:
  8858  006018  EF3C  F030         	goto	l2554
  8859  00601C                     u2320:
  8860  00601C                     
  8861                           ;io.c: 28:         pin -=24;
  8862  00601C  0EE8               	movlw	232
  8863  00601E  2601               	addwf	digitalWrite@pin^0,f,c
  8864  006020  0EFF               	movlw	255
  8865  006022  2202               	addwfc	(digitalWrite@pin+1)^0,f,c
  8866                           
  8867                           ;io.c: 29:         if (value){ ((PORTD) |= (1<<(pin)));}
  8868  006024  5003               	movf	digitalWrite@value^0,w,c
  8869  006026  1004               	iorwf	(digitalWrite@value+1)^0,w,c
  8870  006028  B4D8               	btfsc	status,2,c
  8871  00602A  EF19  F030         	goto	u2331
  8872  00602E  EF1B  F030         	goto	u2330
  8873  006032                     u2331:
  8874  006032  EF2B  F030         	goto	l2552
  8875  006036                     u2330:
  8876  006036  C001  F005         	movff	digitalWrite@pin,??_digitalWrite
  8877  00603A  0E01               	movlw	1
  8878  00603C  6E06               	movwf	(??_digitalWrite+1)^0,c
  8879  00603E  2A05               	incf	??_digitalWrite^0,f,c
  8880  006040  EF24  F030         	goto	u2344
  8881  006044                     u2345:
  8882  006044  90D8               	bcf	status,0,c
  8883  006046  3606               	rlcf	(??_digitalWrite+1)^0,f,c
  8884  006048                     u2344:
  8885  006048  2E05               	decfsz	??_digitalWrite^0,f,c
  8886  00604A  EF22  F030         	goto	u2345
  8887  00604E  5006               	movf	(??_digitalWrite+1)^0,w,c
  8888  006050  1283               	iorwf	131,f,c	;volatile
  8889  006052  EF76  F030         	goto	l226
  8890  006056                     l2552:
  8891  006056  C001  F005         	movff	digitalWrite@pin,??_digitalWrite
  8892  00605A  0E01               	movlw	1
  8893  00605C  6E06               	movwf	(??_digitalWrite+1)^0,c
  8894  00605E  2A05               	incf	??_digitalWrite^0,f,c
  8895  006060  EF34  F030         	goto	u2354
  8896  006064                     u2355:
  8897  006064  90D8               	bcf	status,0,c
  8898  006066  3606               	rlcf	(??_digitalWrite+1)^0,f,c
  8899  006068                     u2354:
  8900  006068  2E05               	decfsz	??_digitalWrite^0,f,c
  8901  00606A  EF32  F030         	goto	u2355
  8902  00606E  5006               	movf	(??_digitalWrite+1)^0,w,c
  8903  006070  0AFF               	xorlw	255
  8904  006072  1683               	andwf	131,f,c	;volatile
  8905  006074  EF76  F030         	goto	l226
  8906  006078                     l2554:
  8907  006078  BE02               	btfsc	(digitalWrite@pin+1)^0,7,c
  8908  00607A  EF4A  F030         	goto	u2360
  8909  00607E  5002               	movf	(digitalWrite@pin+1)^0,w,c
  8910  006080  E107               	bnz	u2361
  8911  006082  0E28               	movlw	40
  8912  006084  5C01               	subwf	digitalWrite@pin^0,w,c
  8913  006086  B0D8               	btfsc	status,0,c
  8914  006088  EF48  F030         	goto	u2361
  8915  00608C  EF4A  F030         	goto	u2360
  8916  006090                     u2361:
  8917  006090  EF76  F030         	goto	l226
  8918  006094                     u2360:
  8919  006094                     
  8920                           ;io.c: 32:         pin -=32;
  8921  006094  0EE0               	movlw	224
  8922  006096  2601               	addwf	digitalWrite@pin^0,f,c
  8923  006098  0EFF               	movlw	255
  8924  00609A  2202               	addwfc	(digitalWrite@pin+1)^0,f,c
  8925                           
  8926                           ;io.c: 33:         if (value){ ((PORTE) |= (1<<(pin)));}
  8927  00609C  5003               	movf	digitalWrite@value^0,w,c
  8928  00609E  1004               	iorwf	(digitalWrite@value+1)^0,w,c
  8929  0060A0  B4D8               	btfsc	status,2,c
  8930  0060A2  EF55  F030         	goto	u2371
  8931  0060A6  EF57  F030         	goto	u2370
  8932  0060AA                     u2371:
  8933  0060AA  EF67  F030         	goto	l2560
  8934  0060AE                     u2370:
  8935  0060AE  C001  F005         	movff	digitalWrite@pin,??_digitalWrite
  8936  0060B2  0E01               	movlw	1
  8937  0060B4  6E06               	movwf	(??_digitalWrite+1)^0,c
  8938  0060B6  2A05               	incf	??_digitalWrite^0,f,c
  8939  0060B8  EF60  F030         	goto	u2384
  8940  0060BC                     u2385:
  8941  0060BC  90D8               	bcf	status,0,c
  8942  0060BE  3606               	rlcf	(??_digitalWrite+1)^0,f,c
  8943  0060C0                     u2384:
  8944  0060C0  2E05               	decfsz	??_digitalWrite^0,f,c
  8945  0060C2  EF5E  F030         	goto	u2385
  8946  0060C6  5006               	movf	(??_digitalWrite+1)^0,w,c
  8947  0060C8  1284               	iorwf	132,f,c	;volatile
  8948  0060CA  EF76  F030         	goto	l226
  8949  0060CE                     l2560:
  8950  0060CE  C001  F005         	movff	digitalWrite@pin,??_digitalWrite
  8951  0060D2  0E01               	movlw	1
  8952  0060D4  6E06               	movwf	(??_digitalWrite+1)^0,c
  8953  0060D6  2A05               	incf	??_digitalWrite^0,f,c
  8954  0060D8  EF70  F030         	goto	u2394
  8955  0060DC                     u2395:
  8956  0060DC  90D8               	bcf	status,0,c
  8957  0060DE  3606               	rlcf	(??_digitalWrite+1)^0,f,c
  8958  0060E0                     u2394:
  8959  0060E0  2E05               	decfsz	??_digitalWrite^0,f,c
  8960  0060E2  EF6E  F030         	goto	u2395
  8961  0060E6  5006               	movf	(??_digitalWrite+1)^0,w,c
  8962  0060E8  0AFF               	xorlw	255
  8963  0060EA  1684               	andwf	132,f,c	;volatile
  8964  0060EC                     l226:
  8965  0060EC  0012               	return		;funcret
  8966  0060EE                     __end_of_digitalWrite:
  8967                           	callstack 0
  8968                           
  8969 ;; *************** function _delayMicro *****************
  8970 ;; Defined at:
  8971 ;;		line 5 in file "lcd.c"
  8972 ;; Parameters:    Size  Location     Type
  8973 ;;  a               2    0[COMRAM] int 
  8974 ;; Auto vars:     Size  Location     Type
  8975 ;;  i               2    0        volatile int 
  8976 ;; Return value:  Size  Location     Type
  8977 ;;                  1    wreg      void 
  8978 ;; Registers used:
  8979 ;;		None
  8980 ;; Tracked objects:
  8981 ;;		On entry : 0/0
  8982 ;;		On exit  : 0/0
  8983 ;;		Unchanged: 0/0
  8984 ;; Data sizes:     COMRAM   BANK0   BANK1   BANK2   BANK3   BANK4   BANK5
  8985 ;;      Params:         2       0       0       0       0       0       0
  8986 ;;      Locals:         0       0       0       0       0       0       0
  8987 ;;      Temps:          0       0       0       0       0       0       0
  8988 ;;      Totals:         2       0       0       0       0       0       0
  8989 ;;Total ram usage:        2 bytes
  8990 ;; Hardware stack levels used: 1
  8991 ;; This function calls:
  8992 ;;		Nothing
  8993 ;; This function is called by:
  8994 ;;		_pulseEnablePin
  8995 ;;		_lcdChar
  8996 ;;		_lcdInit
  8997 ;; This function uses a non-reentrant model
  8998 ;;
  8999                           
  9000                           	psect	text41
  9001  004B02                     __ptext41:
  9002                           	callstack 0
  9003  004B02                     _delayMicro:
  9004                           	callstack 25
  9005  004B02  0012               	return		;funcret
  9006  004B04                     __end_of_delayMicro:
  9007                           	callstack 0
  9008                           
  9009 ;; *************** function _delayMili *****************
  9010 ;; Defined at:
  9011 ;;		line 10 in file "lcd.c"
  9012 ;; Parameters:    Size  Location     Type
  9013 ;;  a               2    0[COMRAM] int 
  9014 ;; Auto vars:     Size  Location     Type
  9015 ;;  i               2    3[COMRAM] volatile int 
  9016 ;; Return value:  Size  Location     Type
  9017 ;;                  1    wreg      void 
  9018 ;; Registers used:
  9019 ;;		wreg, status,2, status,0
  9020 ;; Tracked objects:
  9021 ;;		On entry : 0/0
  9022 ;;		On exit  : 0/0
  9023 ;;		Unchanged: 0/0
  9024 ;; Data sizes:     COMRAM   BANK0   BANK1   BANK2   BANK3   BANK4   BANK5
  9025 ;;      Params:         2       0       0       0       0       0       0
  9026 ;;      Locals:         2       0       0       0       0       0       0
  9027 ;;      Temps:          1       0       0       0       0       0       0
  9028 ;;      Totals:         5       0       0       0       0       0       0
  9029 ;;Total ram usage:        5 bytes
  9030 ;; Hardware stack levels used: 1
  9031 ;; This function calls:
  9032 ;;		Nothing
  9033 ;; This function is called by:
  9034 ;;		_lcdCommand
  9035 ;;		_lcdInit
  9036 ;; This function uses a non-reentrant model
  9037 ;;
  9038                           
  9039                           	psect	text42
  9040  004C6E                     __ptext42:
  9041                           	callstack 0
  9042  004C6E                     _delayMili:
  9043                           	callstack 28
  9044  004C6E                     
  9045                           ;lcd.c: 11:  volatile int i;;lcd.c: 12:  for (i = 0; i < a; i++) {
  9046  004C6E  0E00               	movlw	0
  9047  004C70  6E05               	movwf	(delayMili@i+1)^0,c	;volatile
  9048  004C72  0E00               	movlw	0
  9049  004C74  6E04               	movwf	delayMili@i^0,c	;volatile
  9050  004C76  EF3F  F026         	goto	l2634
  9051  004C7A                     l2632:
  9052                           
  9053                           ;lcd.c: 15:  }
  9054  004C7A  4A04               	infsnz	delayMili@i^0,f,c	;volatile
  9055  004C7C  2A05               	incf	(delayMili@i+1)^0,f,c	;volatile
  9056  004C7E                     l2634:
  9057  004C7E  5001               	movf	delayMili@a^0,w,c
  9058  004C80  5C04               	subwf	delayMili@i^0,w,c	;volatile
  9059  004C82  5005               	movf	(delayMili@i+1)^0,w,c	;volatile
  9060  004C84  0A80               	xorlw	128
  9061  004C86  6E03               	movwf	??_delayMili^0,c
  9062  004C88  5002               	movf	(delayMili@a+1)^0,w,c
  9063  004C8A  0A80               	xorlw	128
  9064  004C8C  5803               	subwfb	??_delayMili^0,w,c
  9065  004C8E  A0D8               	btfss	status,0,c
  9066  004C90  EF4C  F026         	goto	u2511
  9067  004C94  EF4E  F026         	goto	u2510
  9068  004C98                     u2511:
  9069  004C98  EF3D  F026         	goto	l2632
  9070  004C9C                     u2510:
  9071  004C9C  0012               	return		;funcret
  9072  004C9E                     __end_of_delayMili:
  9073                           	callstack 0
  9074                           
  9075 ;; *************** function _kpInit *****************
  9076 ;; Defined at:
  9077 ;;		line 54 in file "keypad.c"
  9078 ;; Parameters:    Size  Location     Type
  9079 ;;		None
  9080 ;; Auto vars:     Size  Location     Type
  9081 ;;		None
  9082 ;; Return value:  Size  Location     Type
  9083 ;;                  1    wreg      void 
  9084 ;; Registers used:
  9085 ;;		wreg, status,2, status,0, cstack
  9086 ;; Tracked objects:
  9087 ;;		On entry : 0/0
  9088 ;;		On exit  : 0/0
  9089 ;;		Unchanged: 0/0
  9090 ;; Data sizes:     COMRAM   BANK0   BANK1   BANK2   BANK3   BANK4   BANK5
  9091 ;;      Params:         0       0       0       0       0       0       0
  9092 ;;      Locals:         0       0       0       0       0       0       0
  9093 ;;      Temps:          0       0       0       0       0       0       0
  9094 ;;      Totals:         0       0       0       0       0       0       0
  9095 ;;Total ram usage:        0 bytes
  9096 ;; Hardware stack levels used: 1
  9097 ;; Hardware stack levels required when called: 2
  9098 ;; This function calls:
  9099 ;;		_pinMode
  9100 ;;		_soInit
  9101 ;; This function is called by:
  9102 ;;		_main
  9103 ;; This function uses a non-reentrant model
  9104 ;;
  9105                           
  9106                           	psect	text43
  9107  004C9E                     __ptext43:
  9108                           	callstack 0
  9109  004C9E                     _kpInit:
  9110                           	callstack 28
  9111  004C9E                     
  9112                           ;keypad.c: 55:   soInit();
  9113  004C9E  EC68  F026         	call	_soInit	;wreg free
  9114                           
  9115                           ;keypad.c: 56:   pinMode(PIN_B2, 1);
  9116  004CA2  0E00               	movlw	0
  9117  004CA4  6E02               	movwf	(pinMode@pin+1)^0,c
  9118  004CA6  0E0A               	movlw	10
  9119  004CA8  6E01               	movwf	pinMode@pin^0,c
  9120  004CAA  0E00               	movlw	0
  9121  004CAC  6E04               	movwf	(pinMode@type+1)^0,c
  9122  004CAE  0E01               	movlw	1
  9123  004CB0  6E03               	movwf	pinMode@type^0,c
  9124  004CB2  EC29  F02E         	call	_pinMode	;wreg free
  9125                           
  9126                           ;keypad.c: 57:   pinMode(PIN_B1, 1);
  9127  004CB6  0E00               	movlw	0
  9128  004CB8  6E02               	movwf	(pinMode@pin+1)^0,c
  9129  004CBA  0E09               	movlw	9
  9130  004CBC  6E01               	movwf	pinMode@pin^0,c
  9131  004CBE  0E00               	movlw	0
  9132  004CC0  6E04               	movwf	(pinMode@type+1)^0,c
  9133  004CC2  0E01               	movlw	1
  9134  004CC4  6E03               	movwf	pinMode@type^0,c
  9135  004CC6  EC29  F02E         	call	_pinMode	;wreg free
  9136  004CCA                     
  9137                           ;keypad.c: 58:   ADCON1 = 0b00001100;
  9138  004CCA  0E0C               	movlw	12
  9139  004CCC  6EC1               	movwf	193,c	;volatile
  9140  004CCE  0012               	return		;funcret
  9141  004CD0                     __end_of_kpInit:
  9142                           	callstack 0
  9143                           
  9144 ;; *************** function _soInit *****************
  9145 ;; Defined at:
  9146 ;;		line 3 in file "so.c"
  9147 ;; Parameters:    Size  Location     Type
  9148 ;;		None
  9149 ;; Auto vars:     Size  Location     Type
  9150 ;;		None
  9151 ;; Return value:  Size  Location     Type
  9152 ;;                  1    wreg      void 
  9153 ;; Registers used:
  9154 ;;		wreg, status,2, status,0, cstack
  9155 ;; Tracked objects:
  9156 ;;		On entry : 0/0
  9157 ;;		On exit  : 0/0
  9158 ;;		Unchanged: 0/0
  9159 ;; Data sizes:     COMRAM   BANK0   BANK1   BANK2   BANK3   BANK4   BANK5
  9160 ;;      Params:         0       0       0       0       0       0       0
  9161 ;;      Locals:         0       0       0       0       0       0       0
  9162 ;;      Temps:          0       0       0       0       0       0       0
  9163 ;;      Totals:         0       0       0       0       0       0       0
  9164 ;;Total ram usage:        0 bytes
  9165 ;; Hardware stack levels used: 1
  9166 ;; Hardware stack levels required when called: 1
  9167 ;; This function calls:
  9168 ;;		_pinMode
  9169 ;; This function is called by:
  9170 ;;		_kpInit
  9171 ;;		_lcdInit
  9172 ;;		_ssdInit
  9173 ;; This function uses a non-reentrant model
  9174 ;;
  9175                           
  9176                           	psect	text44
  9177  004CD0                     __ptext44:
  9178                           	callstack 0
  9179  004CD0                     _soInit:
  9180                           	callstack 28
  9181  004CD0                     
  9182                           ;so.c: 4:  pinMode(PIN_D7, 0);
  9183  004CD0  0E00               	movlw	0
  9184  004CD2  6E02               	movwf	(pinMode@pin+1)^0,c
  9185  004CD4  0E1F               	movlw	31
  9186  004CD6  6E01               	movwf	pinMode@pin^0,c
  9187  004CD8  0E00               	movlw	0
  9188  004CDA  6E04               	movwf	(pinMode@type+1)^0,c
  9189  004CDC  0E00               	movlw	0
  9190  004CDE  6E03               	movwf	pinMode@type^0,c
  9191  004CE0  EC29  F02E         	call	_pinMode	;wreg free
  9192                           
  9193                           ;so.c: 5:  pinMode(PIN_B0, 0);
  9194  004CE4  0E00               	movlw	0
  9195  004CE6  6E02               	movwf	(pinMode@pin+1)^0,c
  9196  004CE8  0E08               	movlw	8
  9197  004CEA  6E01               	movwf	pinMode@pin^0,c
  9198  004CEC  0E00               	movlw	0
  9199  004CEE  6E04               	movwf	(pinMode@type+1)^0,c
  9200  004CF0  0E00               	movlw	0
  9201  004CF2  6E03               	movwf	pinMode@type^0,c
  9202  004CF4  EC29  F02E         	call	_pinMode	;wreg free
  9203                           
  9204                           ;so.c: 6:  pinMode(PIN_D6, 0);
  9205  004CF8  0E00               	movlw	0
  9206  004CFA  6E02               	movwf	(pinMode@pin+1)^0,c
  9207  004CFC  0E1E               	movlw	30
  9208  004CFE  6E01               	movwf	pinMode@pin^0,c
  9209  004D00  0E00               	movlw	0
  9210  004D02  6E04               	movwf	(pinMode@type+1)^0,c
  9211  004D04  0E00               	movlw	0
  9212  004D06  6E03               	movwf	pinMode@type^0,c
  9213  004D08  EC29  F02E         	call	_pinMode	;wreg free
  9214  004D0C  0012               	return		;funcret
  9215  004D0E                     __end_of_soInit:
  9216                           	callstack 0
  9217                           
  9218 ;; *************** function _pinMode *****************
  9219 ;; Defined at:
  9220 ;;		line 54 in file "io.c"
  9221 ;; Parameters:    Size  Location     Type
  9222 ;;  pin             2    0[COMRAM] int 
  9223 ;;  type            2    2[COMRAM] int 
  9224 ;; Auto vars:     Size  Location     Type
  9225 ;;		None
  9226 ;; Return value:  Size  Location     Type
  9227 ;;                  1    wreg      void 
  9228 ;; Registers used:
  9229 ;;		wreg, status,2, status,0
  9230 ;; Tracked objects:
  9231 ;;		On entry : 0/0
  9232 ;;		On exit  : 0/0
  9233 ;;		Unchanged: 0/0
  9234 ;; Data sizes:     COMRAM   BANK0   BANK1   BANK2   BANK3   BANK4   BANK5
  9235 ;;      Params:         4       0       0       0       0       0       0
  9236 ;;      Locals:         0       0       0       0       0       0       0
  9237 ;;      Temps:          2       0       0       0       0       0       0
  9238 ;;      Totals:         6       0       0       0       0       0       0
  9239 ;;Total ram usage:        6 bytes
  9240 ;; Hardware stack levels used: 1
  9241 ;; This function calls:
  9242 ;;		Nothing
  9243 ;; This function is called by:
  9244 ;;		_kpInit
  9245 ;;		_lcdInit
  9246 ;;		_rgbInit
  9247 ;;		_soInit
  9248 ;;		_ssdInit
  9249 ;; This function uses a non-reentrant model
  9250 ;;
  9251                           
  9252                           	psect	text45
  9253  005C52                     __ptext45:
  9254                           	callstack 0
  9255  005C52                     _pinMode:
  9256                           	callstack 28
  9257  005C52                     
  9258                           ;io.c: 56:     if(pin <8){
  9259  005C52  BE02               	btfsc	(pinMode@pin+1)^0,7,c
  9260  005C54  EF37  F02E         	goto	u2670
  9261  005C58  5002               	movf	(pinMode@pin+1)^0,w,c
  9262  005C5A  E107               	bnz	u2671
  9263  005C5C  0E08               	movlw	8
  9264  005C5E  5C01               	subwf	pinMode@pin^0,w,c
  9265  005C60  B0D8               	btfsc	status,0,c
  9266  005C62  EF35  F02E         	goto	u2671
  9267  005C66  EF37  F02E         	goto	u2670
  9268  005C6A                     u2671:
  9269  005C6A  EF61  F02E         	goto	l2730
  9270  005C6E                     u2670:
  9271  005C6E                     
  9272                           ;io.c: 57:         if (type){ ((TRISA) |= (1<<(pin)));}
  9273  005C6E  5003               	movf	pinMode@type^0,w,c
  9274  005C70  1004               	iorwf	(pinMode@type+1)^0,w,c
  9275  005C72  B4D8               	btfsc	status,2,c
  9276  005C74  EF3E  F02E         	goto	u2681
  9277  005C78  EF40  F02E         	goto	u2680
  9278  005C7C                     u2681:
  9279  005C7C  EF50  F02E         	goto	l2728
  9280  005C80                     u2680:
  9281  005C80  C001  F005         	movff	pinMode@pin,??_pinMode
  9282  005C84  0E01               	movlw	1
  9283  005C86  6E06               	movwf	(??_pinMode+1)^0,c
  9284  005C88  2A05               	incf	??_pinMode^0,f,c
  9285  005C8A  EF49  F02E         	goto	u2694
  9286  005C8E                     u2695:
  9287  005C8E  90D8               	bcf	status,0,c
  9288  005C90  3606               	rlcf	(??_pinMode+1)^0,f,c
  9289  005C92                     u2694:
  9290  005C92  2E05               	decfsz	??_pinMode^0,f,c
  9291  005C94  EF47  F02E         	goto	u2695
  9292  005C98  5006               	movf	(??_pinMode+1)^0,w,c
  9293  005C9A  1292               	iorwf	146,f,c	;volatile
  9294  005C9C  EF4F  F02F         	goto	l260
  9295  005CA0                     l2728:
  9296  005CA0  C001  F005         	movff	pinMode@pin,??_pinMode
  9297  005CA4  0E01               	movlw	1
  9298  005CA6  6E06               	movwf	(??_pinMode+1)^0,c
  9299  005CA8  2A05               	incf	??_pinMode^0,f,c
  9300  005CAA  EF59  F02E         	goto	u2704
  9301  005CAE                     u2705:
  9302  005CAE  90D8               	bcf	status,0,c
  9303  005CB0  3606               	rlcf	(??_pinMode+1)^0,f,c
  9304  005CB2                     u2704:
  9305  005CB2  2E05               	decfsz	??_pinMode^0,f,c
  9306  005CB4  EF57  F02E         	goto	u2705
  9307  005CB8  5006               	movf	(??_pinMode+1)^0,w,c
  9308  005CBA  0AFF               	xorlw	255
  9309  005CBC  1692               	andwf	146,f,c	;volatile
  9310  005CBE  EF4F  F02F         	goto	l260
  9311  005CC2                     l2730:
  9312  005CC2  BE02               	btfsc	(pinMode@pin+1)^0,7,c
  9313  005CC4  EF6F  F02E         	goto	u2710
  9314  005CC8  5002               	movf	(pinMode@pin+1)^0,w,c
  9315  005CCA  E107               	bnz	u2711
  9316  005CCC  0E10               	movlw	16
  9317  005CCE  5C01               	subwf	pinMode@pin^0,w,c
  9318  005CD0  B0D8               	btfsc	status,0,c
  9319  005CD2  EF6D  F02E         	goto	u2711
  9320  005CD6  EF6F  F02E         	goto	u2710
  9321  005CDA                     u2711:
  9322  005CDA  EF9D  F02E         	goto	l2738
  9323  005CDE                     u2710:
  9324  005CDE                     
  9325                           ;io.c: 60:         if (type){ ((TRISB) |= (1<<(pin-8)));}
  9326  005CDE  5003               	movf	pinMode@type^0,w,c
  9327  005CE0  1004               	iorwf	(pinMode@type+1)^0,w,c
  9328  005CE2  B4D8               	btfsc	status,2,c
  9329  005CE4  EF76  F02E         	goto	u2721
  9330  005CE8  EF78  F02E         	goto	u2720
  9331  005CEC                     u2721:
  9332  005CEC  EF8A  F02E         	goto	l2736
  9333  005CF0                     u2720:
  9334  005CF0  C001  F005         	movff	pinMode@pin,??_pinMode
  9335  005CF4  0EF8               	movlw	-8
  9336  005CF6  2605               	addwf	??_pinMode^0,f,c
  9337  005CF8  0E01               	movlw	1
  9338  005CFA  6E06               	movwf	(??_pinMode+1)^0,c
  9339  005CFC  2A05               	incf	??_pinMode^0,f,c
  9340  005CFE  EF83  F02E         	goto	u2734
  9341  005D02                     u2735:
  9342  005D02  90D8               	bcf	status,0,c
  9343  005D04  3606               	rlcf	(??_pinMode+1)^0,f,c
  9344  005D06                     u2734:
  9345  005D06  2E05               	decfsz	??_pinMode^0,f,c
  9346  005D08  EF81  F02E         	goto	u2735
  9347  005D0C  5006               	movf	(??_pinMode+1)^0,w,c
  9348  005D0E  1293               	iorwf	147,f,c	;volatile
  9349  005D10  EF4F  F02F         	goto	l260
  9350  005D14                     l2736:
  9351  005D14  C001  F005         	movff	pinMode@pin,??_pinMode
  9352  005D18  0EF8               	movlw	-8
  9353  005D1A  2605               	addwf	??_pinMode^0,f,c
  9354  005D1C  0E01               	movlw	1
  9355  005D1E  6E06               	movwf	(??_pinMode+1)^0,c
  9356  005D20  2A05               	incf	??_pinMode^0,f,c
  9357  005D22  EF95  F02E         	goto	u2744
  9358  005D26                     u2745:
  9359  005D26  90D8               	bcf	status,0,c
  9360  005D28  3606               	rlcf	(??_pinMode+1)^0,f,c
  9361  005D2A                     u2744:
  9362  005D2A  2E05               	decfsz	??_pinMode^0,f,c
  9363  005D2C  EF93  F02E         	goto	u2745
  9364  005D30  5006               	movf	(??_pinMode+1)^0,w,c
  9365  005D32  0AFF               	xorlw	255
  9366  005D34  1693               	andwf	147,f,c	;volatile
  9367  005D36  EF4F  F02F         	goto	l260
  9368  005D3A                     l2738:
  9369  005D3A  BE02               	btfsc	(pinMode@pin+1)^0,7,c
  9370  005D3C  EFAB  F02E         	goto	u2750
  9371  005D40  5002               	movf	(pinMode@pin+1)^0,w,c
  9372  005D42  E107               	bnz	u2751
  9373  005D44  0E18               	movlw	24
  9374  005D46  5C01               	subwf	pinMode@pin^0,w,c
  9375  005D48  B0D8               	btfsc	status,0,c
  9376  005D4A  EFA9  F02E         	goto	u2751
  9377  005D4E  EFAB  F02E         	goto	u2750
  9378  005D52                     u2751:
  9379  005D52  EFD9  F02E         	goto	l2746
  9380  005D56                     u2750:
  9381  005D56                     
  9382                           ;io.c: 63:         if (type){ ((TRISC) |= (1<<(pin-16)));}
  9383  005D56  5003               	movf	pinMode@type^0,w,c
  9384  005D58  1004               	iorwf	(pinMode@type+1)^0,w,c
  9385  005D5A  B4D8               	btfsc	status,2,c
  9386  005D5C  EFB2  F02E         	goto	u2761
  9387  005D60  EFB4  F02E         	goto	u2760
  9388  005D64                     u2761:
  9389  005D64  EFC6  F02E         	goto	l2744
  9390  005D68                     u2760:
  9391  005D68  C001  F005         	movff	pinMode@pin,??_pinMode
  9392  005D6C  0EF0               	movlw	-16
  9393  005D6E  2605               	addwf	??_pinMode^0,f,c
  9394  005D70  0E01               	movlw	1
  9395  005D72  6E06               	movwf	(??_pinMode+1)^0,c
  9396  005D74  2A05               	incf	??_pinMode^0,f,c
  9397  005D76  EFBF  F02E         	goto	u2774
  9398  005D7A                     u2775:
  9399  005D7A  90D8               	bcf	status,0,c
  9400  005D7C  3606               	rlcf	(??_pinMode+1)^0,f,c
  9401  005D7E                     u2774:
  9402  005D7E  2E05               	decfsz	??_pinMode^0,f,c
  9403  005D80  EFBD  F02E         	goto	u2775
  9404  005D84  5006               	movf	(??_pinMode+1)^0,w,c
  9405  005D86  1294               	iorwf	148,f,c	;volatile
  9406  005D88  EF4F  F02F         	goto	l260
  9407  005D8C                     l2744:
  9408  005D8C  C001  F005         	movff	pinMode@pin,??_pinMode
  9409  005D90  0EF0               	movlw	-16
  9410  005D92  2605               	addwf	??_pinMode^0,f,c
  9411  005D94  0E01               	movlw	1
  9412  005D96  6E06               	movwf	(??_pinMode+1)^0,c
  9413  005D98  2A05               	incf	??_pinMode^0,f,c
  9414  005D9A  EFD1  F02E         	goto	u2784
  9415  005D9E                     u2785:
  9416  005D9E  90D8               	bcf	status,0,c
  9417  005DA0  3606               	rlcf	(??_pinMode+1)^0,f,c
  9418  005DA2                     u2784:
  9419  005DA2  2E05               	decfsz	??_pinMode^0,f,c
  9420  005DA4  EFCF  F02E         	goto	u2785
  9421  005DA8  5006               	movf	(??_pinMode+1)^0,w,c
  9422  005DAA  0AFF               	xorlw	255
  9423  005DAC  1694               	andwf	148,f,c	;volatile
  9424  005DAE  EF4F  F02F         	goto	l260
  9425  005DB2                     l2746:
  9426  005DB2  BE02               	btfsc	(pinMode@pin+1)^0,7,c
  9427  005DB4  EFE7  F02E         	goto	u2790
  9428  005DB8  5002               	movf	(pinMode@pin+1)^0,w,c
  9429  005DBA  E107               	bnz	u2791
  9430  005DBC  0E20               	movlw	32
  9431  005DBE  5C01               	subwf	pinMode@pin^0,w,c
  9432  005DC0  B0D8               	btfsc	status,0,c
  9433  005DC2  EFE5  F02E         	goto	u2791
  9434  005DC6  EFE7  F02E         	goto	u2790
  9435  005DCA                     u2791:
  9436  005DCA  EF15  F02F         	goto	l2754
  9437  005DCE                     u2790:
  9438  005DCE                     
  9439                           ;io.c: 66:         if (type){ ((TRISD) |= (1<<(pin-24)));}
  9440  005DCE  5003               	movf	pinMode@type^0,w,c
  9441  005DD0  1004               	iorwf	(pinMode@type+1)^0,w,c
  9442  005DD2  B4D8               	btfsc	status,2,c
  9443  005DD4  EFEE  F02E         	goto	u2801
  9444  005DD8  EFF0  F02E         	goto	u2800
  9445  005DDC                     u2801:
  9446  005DDC  EF02  F02F         	goto	l2752
  9447  005DE0                     u2800:
  9448  005DE0  C001  F005         	movff	pinMode@pin,??_pinMode
  9449  005DE4  0EE8               	movlw	-24
  9450  005DE6  2605               	addwf	??_pinMode^0,f,c
  9451  005DE8  0E01               	movlw	1
  9452  005DEA  6E06               	movwf	(??_pinMode+1)^0,c
  9453  005DEC  2A05               	incf	??_pinMode^0,f,c
  9454  005DEE  EFFB  F02E         	goto	u2814
  9455  005DF2                     u2815:
  9456  005DF2  90D8               	bcf	status,0,c
  9457  005DF4  3606               	rlcf	(??_pinMode+1)^0,f,c
  9458  005DF6                     u2814:
  9459  005DF6  2E05               	decfsz	??_pinMode^0,f,c
  9460  005DF8  EFF9  F02E         	goto	u2815
  9461  005DFC  5006               	movf	(??_pinMode+1)^0,w,c
  9462  005DFE  1295               	iorwf	149,f,c	;volatile
  9463  005E00  EF4F  F02F         	goto	l260
  9464  005E04                     l2752:
  9465  005E04  C001  F005         	movff	pinMode@pin,??_pinMode
  9466  005E08  0EE8               	movlw	-24
  9467  005E0A  2605               	addwf	??_pinMode^0,f,c
  9468  005E0C  0E01               	movlw	1
  9469  005E0E  6E06               	movwf	(??_pinMode+1)^0,c
  9470  005E10  2A05               	incf	??_pinMode^0,f,c
  9471  005E12  EF0D  F02F         	goto	u2824
  9472  005E16                     u2825:
  9473  005E16  90D8               	bcf	status,0,c
  9474  005E18  3606               	rlcf	(??_pinMode+1)^0,f,c
  9475  005E1A                     u2824:
  9476  005E1A  2E05               	decfsz	??_pinMode^0,f,c
  9477  005E1C  EF0B  F02F         	goto	u2825
  9478  005E20  5006               	movf	(??_pinMode+1)^0,w,c
  9479  005E22  0AFF               	xorlw	255
  9480  005E24  1695               	andwf	149,f,c	;volatile
  9481  005E26  EF4F  F02F         	goto	l260
  9482  005E2A                     l2754:
  9483  005E2A  BE02               	btfsc	(pinMode@pin+1)^0,7,c
  9484  005E2C  EF23  F02F         	goto	u2830
  9485  005E30  5002               	movf	(pinMode@pin+1)^0,w,c
  9486  005E32  E107               	bnz	u2831
  9487  005E34  0E28               	movlw	40
  9488  005E36  5C01               	subwf	pinMode@pin^0,w,c
  9489  005E38  B0D8               	btfsc	status,0,c
  9490  005E3A  EF21  F02F         	goto	u2831
  9491  005E3E  EF23  F02F         	goto	u2830
  9492  005E42                     u2831:
  9493  005E42  EF4F  F02F         	goto	l260
  9494  005E46                     u2830:
  9495  005E46                     
  9496                           ;io.c: 69:         if (type){ ((TRISE) |= (1<<(pin-32)));}
  9497  005E46  5003               	movf	pinMode@type^0,w,c
  9498  005E48  1004               	iorwf	(pinMode@type+1)^0,w,c
  9499  005E4A  B4D8               	btfsc	status,2,c
  9500  005E4C  EF2A  F02F         	goto	u2841
  9501  005E50  EF2C  F02F         	goto	u2840
  9502  005E54                     u2841:
  9503  005E54  EF3E  F02F         	goto	l2760
  9504  005E58                     u2840:
  9505  005E58  C001  F005         	movff	pinMode@pin,??_pinMode
  9506  005E5C  0EE0               	movlw	-32
  9507  005E5E  2605               	addwf	??_pinMode^0,f,c
  9508  005E60  0E01               	movlw	1
  9509  005E62  6E06               	movwf	(??_pinMode+1)^0,c
  9510  005E64  2A05               	incf	??_pinMode^0,f,c
  9511  005E66  EF37  F02F         	goto	u2854
  9512  005E6A                     u2855:
  9513  005E6A  90D8               	bcf	status,0,c
  9514  005E6C  3606               	rlcf	(??_pinMode+1)^0,f,c
  9515  005E6E                     u2854:
  9516  005E6E  2E05               	decfsz	??_pinMode^0,f,c
  9517  005E70  EF35  F02F         	goto	u2855
  9518  005E74  5006               	movf	(??_pinMode+1)^0,w,c
  9519  005E76  1296               	iorwf	150,f,c	;volatile
  9520  005E78  EF4F  F02F         	goto	l260
  9521  005E7C                     l2760:
  9522  005E7C  C001  F005         	movff	pinMode@pin,??_pinMode
  9523  005E80  0EE0               	movlw	-32
  9524  005E82  2605               	addwf	??_pinMode^0,f,c
  9525  005E84  0E01               	movlw	1
  9526  005E86  6E06               	movwf	(??_pinMode+1)^0,c
  9527  005E88  2A05               	incf	??_pinMode^0,f,c
  9528  005E8A  EF49  F02F         	goto	u2864
  9529  005E8E                     u2865:
  9530  005E8E  90D8               	bcf	status,0,c
  9531  005E90  3606               	rlcf	(??_pinMode+1)^0,f,c
  9532  005E92                     u2864:
  9533  005E92  2E05               	decfsz	??_pinMode^0,f,c
  9534  005E94  EF47  F02F         	goto	u2865
  9535  005E98  5006               	movf	(??_pinMode+1)^0,w,c
  9536  005E9A  0AFF               	xorlw	255
  9537  005E9C  1696               	andwf	150,f,c	;volatile
  9538  005E9E                     l260:
  9539  005E9E  0012               	return		;funcret
  9540  005EA0                     __end_of_pinMode:
  9541                           	callstack 0
  9542                           
  9543                           	psect	rparam
  9544  0000                     
  9545                           	psect	idloc
  9546                           
  9547                           ;Config register IDLOC0 @ 0x200000
  9548                           ;	unspecified, using default values
  9549  200000                     	org	2097152
  9550  200000  FF                 	db	255
  9551                           
  9552                           ;Config register IDLOC1 @ 0x200001
  9553                           ;	unspecified, using default values
  9554  200001                     	org	2097153
  9555  200001  FF                 	db	255
  9556                           
  9557                           ;Config register IDLOC2 @ 0x200002
  9558                           ;	unspecified, using default values
  9559  200002                     	org	2097154
  9560  200002  FF                 	db	255
  9561                           
  9562                           ;Config register IDLOC3 @ 0x200003
  9563                           ;	unspecified, using default values
  9564  200003                     	org	2097155
  9565  200003  FF                 	db	255
  9566                           
  9567                           ;Config register IDLOC4 @ 0x200004
  9568                           ;	unspecified, using default values
  9569  200004                     	org	2097156
  9570  200004  FF                 	db	255
  9571                           
  9572                           ;Config register IDLOC5 @ 0x200005
  9573                           ;	unspecified, using default values
  9574  200005                     	org	2097157
  9575  200005  FF                 	db	255
  9576                           
  9577                           ;Config register IDLOC6 @ 0x200006
  9578                           ;	unspecified, using default values
  9579  200006                     	org	2097158
  9580  200006  FF                 	db	255
  9581                           
  9582                           ;Config register IDLOC7 @ 0x200007
  9583                           ;	unspecified, using default values
  9584  200007                     	org	2097159
  9585  200007  FF                 	db	255
  9586                           
  9587                           	psect	config
  9588                           
  9589                           ; Padding undefined space
  9590  300000                     	org	3145728
  9591  300000  FF                 	db	255
  9592                           
  9593                           ;Config register CONFIG1H @ 0x300001
  9594                           ;	Oscillator Selection bits
  9595                           ;	OSC = HS, HS oscillator
  9596                           ;	Fail-Safe Clock Monitor Enable bit
  9597                           ;	FCMEN = OFF, Fail-Safe Clock Monitor disabled
  9598                           ;	Internal/External Oscillator Switchover bit
  9599                           ;	IESO = OFF, Oscillator Switchover mode disabled
  9600  300001                     	org	3145729
  9601  300001  02                 	db	2
  9602                           
  9603                           ;Config register CONFIG2L @ 0x300002
  9604                           ;	Power-up Timer Enable bit
  9605                           ;	PWRT = OFF, PWRT disabled
  9606                           ;	Brown-out Reset Enable bits
  9607                           ;	BOREN = OFF, Brown-out Reset disabled in hardware and software
  9608                           ;	Brown Out Reset Voltage bits
  9609                           ;	BORV = 0x2E, user specified literal
  9610  300002                     	org	3145730
  9611  300002  71                 	db	369
  9612                           
  9613                           ;Config register CONFIG2H @ 0x300003
  9614                           ;	Watchdog Timer Enable bit
  9615                           ;	WDT = OFF, WDT disabled (control is placed on the SWDTEN bit)
  9616                           ;	Watchdog Timer Postscale Select bits
  9617                           ;	WDTPS = 1, 1:1
  9618  300003                     	org	3145731
  9619  300003  00                 	db	0
  9620                           
  9621                           ; Padding undefined space
  9622  300004                     	org	3145732
  9623  300004  FF                 	db	255
  9624                           
  9625                           ;Config register CONFIG3H @ 0x300005
  9626                           ;	CCP2 MUX bit
  9627                           ;	CCP2MX = PORTC, CCP2 input/output is multiplexed with RC1
  9628                           ;	PORTB A/D Enable bit
  9629                           ;	PBADEN = ON, PORTB<4:0> pins are configured as analog input channels on Reset
  9630                           ;	Low-Power Timer1 Oscillator Enable bit
  9631                           ;	LPT1OSC = OFF, Timer1 configured for higher power operation
  9632                           ;	MCLR Pin Enable bit
  9633                           ;	MCLRE = ON, MCLR pin enabled; RE3 input pin disabled
  9634  300005                     	org	3145733
  9635  300005  83                 	db	131
  9636                           
  9637                           ;Config register CONFIG4L @ 0x300006
  9638                           ;	Stack Full/Underflow Reset Enable bit
  9639                           ;	STVREN = OFF, Stack full/underflow will not cause Reset
  9640                           ;	Single-Supply ICSP Enable bit
  9641                           ;	LVP = OFF, Single-Supply ICSP disabled
  9642                           ;	Extended Instruction Set Enable bit
  9643                           ;	XINST = OFF, Instruction set extension and Indexed Addressing mode disabled (Legacy mo
      +                          de)
  9644                           ;	Background Debugger Enable bit
  9645                           ;	DEBUG = OFF, Background debugger disabled, RB6 and RB7 configured as general purpose I
      +                          /O pins
  9646  300006                     	org	3145734
  9647  300006  80                 	db	128
  9648                           
  9649                           ; Padding undefined space
  9650  300007                     	org	3145735
  9651  300007  FF                 	db	255
  9652                           
  9653                           ;Config register CONFIG5L @ 0x300008
  9654                           ;	Code Protection bit
  9655                           ;	CP0 = OFF, Block 0 (000800-001FFFh) not code-protected
  9656                           ;	Code Protection bit
  9657                           ;	CP1 = OFF, Block 1 (002000-003FFFh) not code-protected
  9658                           ;	Code Protection bit
  9659                           ;	CP2 = OFF, Block 2 (004000-005FFFh) not code-protected
  9660                           ;	Code Protection bit
  9661                           ;	CP3 = OFF, Block 3 (006000-007FFFh) not code-protected
  9662  300008                     	org	3145736
  9663  300008  0F                 	db	15
  9664                           
  9665                           ;Config register CONFIG5H @ 0x300009
  9666                           ;	Boot Block Code Protection bit
  9667                           ;	CPB = OFF, Boot block (000000-0007FFh) not code-protected
  9668                           ;	Data EEPROM Code Protection bit
  9669                           ;	CPD = OFF, Data EEPROM not code-protected
  9670  300009                     	org	3145737
  9671  300009  C0                 	db	192
  9672                           
  9673                           ;Config register CONFIG6L @ 0x30000A
  9674                           ;	Write Protection bit
  9675                           ;	WRT0 = OFF, Block 0 (000800-001FFFh) not write-protected
  9676                           ;	Write Protection bit
  9677                           ;	WRT1 = OFF, Block 1 (002000-003FFFh) not write-protected
  9678                           ;	Write Protection bit
  9679                           ;	WRT2 = OFF, Block 2 (004000-005FFFh) not write-protected
  9680                           ;	Write Protection bit
  9681                           ;	WRT3 = OFF, Block 3 (006000-007FFFh) not write-protected
  9682  30000A                     	org	3145738
  9683  30000A  0F                 	db	15
  9684                           
  9685                           ;Config register CONFIG6H @ 0x30000B
  9686                           ;	Configuration Register Write Protection bit
  9687                           ;	WRTC = OFF, Configuration registers (300000-3000FFh) not write-protected
  9688                           ;	Boot Block Write Protection bit
  9689                           ;	WRTB = OFF, Boot block (000000-0007FFh) not write-protected
  9690                           ;	Data EEPROM Write Protection bit
  9691                           ;	WRTD = OFF, Data EEPROM not write-protected
  9692  30000B                     	org	3145739
  9693  30000B  E0                 	db	224
  9694                           
  9695                           ;Config register CONFIG7L @ 0x30000C
  9696                           ;	Table Read Protection bit
  9697                           ;	EBTR0 = OFF, Block 0 (000800-001FFFh) not protected from table reads executed in other
      +                           blocks
  9698                           ;	Table Read Protection bit
  9699                           ;	EBTR1 = OFF, Block 1 (002000-003FFFh) not protected from table reads executed in other
      +                           blocks
  9700                           ;	Table Read Protection bit
  9701                           ;	EBTR2 = OFF, Block 2 (004000-005FFFh) not protected from table reads executed in other
      +                           blocks
  9702                           ;	Table Read Protection bit
  9703                           ;	EBTR3 = OFF, Block 3 (006000-007FFFh) not protected from table reads executed in other
      +                           blocks
  9704  30000C                     	org	3145740
  9705  30000C  0F                 	db	15
  9706                           
  9707                           ;Config register CONFIG7H @ 0x30000D
  9708                           ;	Boot Block Table Read Protection bit
  9709                           ;	EBTRB = OFF, Boot block (000000-0007FFh) not protected from table reads executed in ot
      +                          her blocks
  9710  30000D                     	org	3145741
  9711  30000D  40                 	db	64
  9712                           tosu	equ	0xFFF
  9713                           tosh	equ	0xFFE
  9714                           tosl	equ	0xFFD
  9715                           stkptr	equ	0xFFC
  9716                           pclatu	equ	0xFFB
  9717                           pclath	equ	0xFFA
  9718                           pcl	equ	0xFF9
  9719                           tblptru	equ	0xFF8
  9720                           tblptrh	equ	0xFF7
  9721                           tblptrl	equ	0xFF6
  9722                           tablat	equ	0xFF5
  9723                           prodh	equ	0xFF4
  9724                           prodl	equ	0xFF3
  9725                           indf0	equ	0xFEF
  9726                           postinc0	equ	0xFEE
  9727                           postdec0	equ	0xFED
  9728                           preinc0	equ	0xFEC
  9729                           plusw0	equ	0xFEB
  9730                           fsr0h	equ	0xFEA
  9731                           fsr0l	equ	0xFE9
  9732                           wreg	equ	0xFE8
  9733                           indf1	equ	0xFE7
  9734                           postinc1	equ	0xFE6
  9735                           postdec1	equ	0xFE5
  9736                           preinc1	equ	0xFE4
  9737                           plusw1	equ	0xFE3
  9738                           fsr1h	equ	0xFE2
  9739                           fsr1l	equ	0xFE1
  9740                           bsr	equ	0xFE0
  9741                           indf2	equ	0xFDF
  9742                           postinc2	equ	0xFDE
  9743                           postdec2	equ	0xFDD
  9744                           preinc2	equ	0xFDC
  9745                           plusw2	equ	0xFDB
  9746                           fsr2h	equ	0xFDA
  9747                           fsr2l	equ	0xFD9
  9748                           status	equ	0xFD8

Data Sizes:
    Strings     676
    Constant    26
    Data        0
    BSS         12
    Persistent  0
    Stack       0

Auto Spaces:
    Space          Size  Autos    Used
    COMRAM          127    120     126
    BANK0           128      0       6
    BANK1           256      0       0
    BANK2           256      0       0
    BANK3           256      0       0
    BANK4           256      0       0
    BANK5           256      0       0

Pointer List with Targets:

    lcdString@msg	PTR unsigned char  size(2) Largest target is 17
		 -> STR_33(CODE[14]), STR_32(CODE[7]), STR_31(CODE[14]), STR_30(CODE[7]), 
		 -> STR_29(CODE[14]), STR_28(CODE[9]), STR_26(CODE[13]), STR_25(CODE[14]), 
		 -> STR_21(CODE[3]), STR_20(CODE[9]), STR_19(CODE[11]), STR_17(CODE[15]), 
		 -> STR_15(CODE[16]), STR_14(CODE[12]), STR_12(CODE[13]), STR_11(CODE[11]), 
		 -> STR_10(CODE[9]), STR_9(CODE[17]), STR_2(CODE[15]), STR_1(CODE[13]), 

    serial_tx_str@val	PTR const unsigned char  size(2) Largest target is 56
		 -> STR_37(CODE[21]), STR_36(CODE[19]), STR_35(CODE[20]), STR_34(CODE[50]), 
		 -> STR_27(CODE[31]), STR_24(CODE[4]), STR_23(CODE[12]), STR_22(CODE[25]), 
		 -> STR_18(CODE[19]), STR_16(CODE[56]), STR_13(CODE[20]), STR_8(CODE[24]), 
		 -> STR_7(CODE[24]), STR_6(CODE[24]), STR_5(CODE[26]), STR_4(CODE[30]), 
		 -> STR_3(CODE[35]), 


Critical Paths under _main in COMRAM

    _main->_selecaoCombustivel
    _telaInicial->_lcdString
    _ssdInit->_pinMode
    _selecaoCombustivel->_abastecimentoBomba
    _serial_rx->_atraso_ms
    _opcaoInvalida->_lcdString
    _abastecimentoBomba->___fladd
    _ssdUpdate->_soWrite
    _ssdDigit->___awmod
    _serial_tx_str->_serial_tx
    _rgbColor->_digitalWrite
    _lcdString->_lcdChar
    _lcdChar->_pushByte
    _kpDebounce->_soWrite
    ___fltol->___fldiv
    ___fladd->___xxtofl
    ___awmod->___fltol
    ___xxtofl->___wmul
    ___wmul->___awmod
    ___flmul->___xxtofl
    _rgbInit->_pinMode
    _lcdInit->_lcdCommand
    _pushNibble->_soWrite
    _lcdCommand->_pushByte
    _pushByte->_soWrite
    _soWrite->_digitalWrite
    _PulseEnClock->_digitalWrite
    _PulseClockData->_digitalWrite
    _pulseEnablePin->_digitalWrite
    _kpInit->_pinMode
    _soInit->_pinMode

Critical Paths under _main in BANK0

    None.

Critical Paths under _main in BANK1

    None.

Critical Paths under _main in BANK2

    None.

Critical Paths under _main in BANK3

    None.

Critical Paths under _main in BANK4

    None.

Critical Paths under _main in BANK5

    None.

Call Graph Tables:

 ---------------------------------------------------------------------------------
 (Depth) Function   	        Calls       Base Space   Used Autos Params    Refs
 ---------------------------------------------------------------------------------
 (0) _main                                                 4     4      0  545120
                                            116 COMRAM     4     4      0
                          _atraso_ms
                         _kpDebounce
                             _kpInit
                          _kpReadKey
                         _lcdCommand
                            _lcdInit
                          _lcdString
                            _rgbInit
                 _selecaoCombustivel
                        _serial_init
                      _serial_tx_str
                            _ssdInit
                        _telaInicial
                          _timerInit
 ---------------------------------------------------------------------------------
 (1) _timerInit                                            0     0      0       0
 ---------------------------------------------------------------------------------
 (1) _telaInicial                                          0     0      0   70225
                         _lcdCommand
                          _lcdString
                           _rgbColor
                      _serial_tx_str
 ---------------------------------------------------------------------------------
 (1) _ssdInit                                              0     0      0    5136
                            _pinMode
                             _soInit
 ---------------------------------------------------------------------------------
 (1) _serial_init                                          0     0      0       0
 ---------------------------------------------------------------------------------
 (1) _selecaoCombustivel                                  24    24      0  312025
                                             92 COMRAM    24    24      0
                            ___awmod
                            ___fladd
                            ___fldiv
                            ___flmul
                             ___wmul
                           ___xxtofl
                 _abastecimentoBomba
                         _lcdCommand
                          _lcdString
                      _opcaoInvalida
                          _serial_rx
                          _serial_tx
                      _serial_tx_str
 ---------------------------------------------------------------------------------
 (2) _serial_rx                                            4     2      2     662
                                              6 COMRAM     4     2      2
                          _atraso_ms
 ---------------------------------------------------------------------------------
 (2) _opcaoInvalida                                        0     0      0   64609
                          _atraso_ms
                         _lcdCommand
                          _lcdString
                      _serial_tx_str
 ---------------------------------------------------------------------------------
 (2) _abastecimentoBomba                                  15     7      8  165472
                                             77 COMRAM    15     7      8
                            ___awmod
                            ___fladd
                            ___fldiv
                             ___flge
                            ___fltol
                          _atraso_ms
                       _digitalWrite
                         _kpDebounce
                          _kpReadKey
                            _lcdChar
                         _lcdCommand
                          _lcdString
                           _rgbColor
                          _serial_tx
                      _serial_tx_str
                           _ssdDigit
                          _ssdUpdate
                         _timerEnded
                         _timerReset
                          _timerWait
 ---------------------------------------------------------------------------------
 (3) _timerWait                                            0     0      0       0
 ---------------------------------------------------------------------------------
 (3) _timerReset                                           4     2      2     243
                                              0 COMRAM     4     2      2
 ---------------------------------------------------------------------------------
 (3) _timerEnded                                           0     0      0       0
 ---------------------------------------------------------------------------------
 (3) _ssdUpdate                                            2     2      0   23809
                                              9 COMRAM     2     2      0
                       _digitalWrite
                            _soWrite
 ---------------------------------------------------------------------------------
 (3) _ssdDigit                                             2     1      1     480
                                             41 COMRAM     2     1      1
                            ___awmod (ARG)
                            ___fldiv (ARG)
                            ___fltol (ARG)
 ---------------------------------------------------------------------------------
 (2) _serial_tx_str                                        5     3      2    1397
                                              1 COMRAM     5     3      2
                          _serial_tx
 ---------------------------------------------------------------------------------
 (3) _serial_tx                                            1     1      0      15
                                              0 COMRAM     1     1      0
 ---------------------------------------------------------------------------------
 (2) _rgbColor                                             2     0      2    6058
                                              6 COMRAM     2     0      2
                       _digitalWrite
 ---------------------------------------------------------------------------------
 (2) _lcdString                                            6     4      2   32205
                                             14 COMRAM     6     4      2
                            _lcdChar
 ---------------------------------------------------------------------------------
 (3) _lcdChar                                              1     1      0   30595
                                             13 COMRAM     1     1      0
                         _delayMicro
                           _pushByte
 ---------------------------------------------------------------------------------
 (3) _kpReadKey                                            5     5      0      90
                                              0 COMRAM     5     5      0
 ---------------------------------------------------------------------------------
 (3) _kpDebounce                                           5     5      0   18529
                                              9 COMRAM     5     5      0
                        _digitalRead
                            _soWrite
 ---------------------------------------------------------------------------------
 (4) _digitalRead                                          5     3      2     372
                                              0 COMRAM     5     3      2
 ---------------------------------------------------------------------------------
 (3) _atraso_ms                                            6     4      2     442
                                              0 COMRAM     6     4      2
 ---------------------------------------------------------------------------------
 (3) ___fltol                                             10     6      4    1749
                                             25 COMRAM    10     6      4
                            ___fldiv (ARG)
 ---------------------------------------------------------------------------------
 (3) ___flge                                              12     4      8     334
                                              0 COMRAM    12     4      8
 ---------------------------------------------------------------------------------
 (3) ___fldiv                                             25    17      8    4439
                                              0 COMRAM    25    17      8
 ---------------------------------------------------------------------------------
 (3) ___fladd                                             16     8      8    3300
                                             61 COMRAM    16     8      8
                            ___awmod (ARG)
                             ___wmul (ARG)
                           ___xxtofl (ARG)
 ---------------------------------------------------------------------------------
 (3) ___awmod                                              6     2      4    4704
                                             35 COMRAM     6     2      4
                            ___fldiv (ARG)
                            ___fltol (ARG)
 ---------------------------------------------------------------------------------
 (2) ___xxtofl                                            14    10      4     930
                                             47 COMRAM    14    10      4
                            ___awmod (ARG)
                             ___wmul (ARG)
 ---------------------------------------------------------------------------------
 (2) ___wmul                                               6     2      4     767
                                             41 COMRAM     6     2      4
                            ___awmod (ARG)
 ---------------------------------------------------------------------------------
 (2) ___flmul                                             25    17      8    2048
                                             61 COMRAM    25    17      8
                            ___awmod (ARG)
                           ___xxtofl (ARG)
 ---------------------------------------------------------------------------------
 (1) _rgbInit                                              0     0      0    2568
                            _pinMode
 ---------------------------------------------------------------------------------
 (1) _lcdInit                                              0     0      0   66732
                         _delayMicro
                          _delayMili
                         _lcdCommand
                            _pinMode
                         _pushNibble
                             _soInit
 ---------------------------------------------------------------------------------
 (2) _pushNibble                                           3     1      2   30301
                                              9 COMRAM     3     1      2
                       _digitalWrite
                     _pulseEnablePin
                            _soWrite
 ---------------------------------------------------------------------------------
 (2) _lcdCommand                                           1     1      0   30565
                                             13 COMRAM     1     1      0
                          _delayMili
                           _pushByte
 ---------------------------------------------------------------------------------
 (4) _pushByte                                             4     2      2   30193
                                              9 COMRAM     4     2      2
                       _digitalWrite
                     _pulseEnablePin
                            _soWrite
 ---------------------------------------------------------------------------------
 (5) _soWrite                                              3     1      2   18045
                                              6 COMRAM     3     1      2
                     _PulseClockData
                       _PulseEnClock
                       _digitalWrite
 ---------------------------------------------------------------------------------
 (6) _PulseEnClock                                         0     0      0    5764
                       _digitalWrite
 ---------------------------------------------------------------------------------
 (6) _PulseClockData                                       0     0      0    5764
                       _digitalWrite
 ---------------------------------------------------------------------------------
 (5) _pulseEnablePin                                       0     0      0    6144
                         _delayMicro
                       _digitalWrite
 ---------------------------------------------------------------------------------
 (3) _digitalWrite                                         6     2      4    5764
                                              0 COMRAM     6     2      4
 ---------------------------------------------------------------------------------
 (6) _delayMicro                                           4     2      2     380
                                              0 COMRAM     2     0      2
 ---------------------------------------------------------------------------------
 (3) _delayMili                                            5     3      2     350
                                              0 COMRAM     5     3      2
 ---------------------------------------------------------------------------------
 (1) _kpInit                                               0     0      0    5136
                            _pinMode
                             _soInit
 ---------------------------------------------------------------------------------
 (2) _soInit                                               0     0      0    2568
                            _pinMode
 ---------------------------------------------------------------------------------
 (3) _pinMode                                              6     2      4    2568
                                              0 COMRAM     6     2      4
 ---------------------------------------------------------------------------------
 Estimated maximum stack depth 6
 ---------------------------------------------------------------------------------

 Call Graph Graphs:

 _main (ROOT)
   _atraso_ms
   _kpDebounce
     _digitalRead
     _soWrite
       _PulseClockData
         _digitalWrite
       _PulseEnClock
         _digitalWrite
       _digitalWrite
   _kpInit
     _pinMode
     _soInit
       _pinMode
   _kpReadKey
   _lcdCommand
     _delayMili
     _pushByte
       _digitalWrite
       _pulseEnablePin
         _delayMicro
         _digitalWrite
       _soWrite
   _lcdInit
     _delayMicro
     _delayMili
     _lcdCommand
     _pinMode
     _pushNibble
       _digitalWrite
       _pulseEnablePin
       _soWrite
     _soInit
   _lcdString
     _lcdChar
       _delayMicro
       _pushByte
   _rgbInit
     _pinMode
   _selecaoCombustivel
     ___awmod
       ___fldiv (ARG)
       ___fltol (ARG)
         ___fldiv (ARG)
     ___fladd
       ___awmod (ARG)
       ___wmul (ARG)
         ___awmod (ARG)
       ___xxtofl (ARG)
         ___awmod (ARG)
         ___wmul (ARG)
     ___fldiv
     ___flmul
       ___awmod (ARG)
       ___xxtofl (ARG)
     ___wmul
     ___xxtofl
     _abastecimentoBomba
       ___awmod
       ___fladd
       ___fldiv
       ___flge
       ___fltol
       _atraso_ms
       _digitalWrite
       _kpDebounce
       _kpReadKey
       _lcdChar
       _lcdCommand
       _lcdString
       _rgbColor
         _digitalWrite
       _serial_tx
       _serial_tx_str
         _serial_tx
       _ssdDigit
         ___awmod (ARG)
         ___fldiv (ARG)
         ___fltol (ARG)
       _ssdUpdate
         _digitalWrite
         _soWrite
       _timerEnded
       _timerReset
       _timerWait
     _lcdCommand
     _lcdString
     _opcaoInvalida
       _atraso_ms
       _lcdCommand
       _lcdString
       _serial_tx_str
     _serial_rx
       _atraso_ms
     _serial_tx
     _serial_tx_str
   _serial_init
   _serial_tx_str
   _ssdInit
     _pinMode
     _soInit
   _telaInicial
     _lcdCommand
     _lcdString
     _rgbColor
     _serial_tx_str
   _timerInit

 Address spaces:
Name               Size   Autos  Total    Cost      Usage
BIGRAM             5FF      0       0      17        0.0%
EEDATA             100      0       0       0        0.0%
BITBANK5           100      0       0      16        0.0%
BANK5              100      0       0      14        0.0%
BITBANK4           100      0       0      12        0.0%
BANK4              100      0       0      13        0.0%
BITBANK3           100      0       0      10        0.0%
BANK3              100      0       0      11        0.0%
BITBANK2           100      0       0       8        0.0%
BANK2              100      0       0       9        0.0%
BITBANK1           100      0       0       6        0.0%
BANK1              100      0       0       7        0.0%
BITBANK0            80      0       0       4        0.0%
BANK0               80      0       6       5        4.7%
BITCOMRAM           7F      0       0       0        0.0%
COMRAM              7F     78      7E       1       99.2%
BITSFR               0      0       0     200        0.0%
SFR                  0      0       0     200        0.0%
STACK                0      0       0       2        0.0%
NULL                 0      0       0       0        0.0%
ABS                  0      0      84      15        0.0%
DATA                 0      0      84       3        0.0%
CODE                 0      0       0       0        0.0%


Microchip Technology PIC18 Macro Assembler V2.32 build 20210201212658 
Symbol Table                                                                                   Fri Dec 17 14:58:01 2021

               ___fldiv@aexp 0019                 ___fldiv@bexp 0018                 ___fldiv@sign 0011  
             _pulseEnablePin 4D4C                 lcdString@msg 000F                           l20 4B3C  
                         l23 4B4A                           l40 5188                           l41 5196  
                         l17 4B34                           l34 5144                           l43 51AC  
                         l29 4E6E                           l81 57AE                           l83 57C6  
                         l67 511E                           l86 4CCE                           l97 4B02  
                         _v0 007C                           _v1 007B                           _v2 007A  
                         _v3 0079          ___wmul@multiplicand 002C                          l103 4C9C  
                        l112 4FCC                          l106 4D8C                          l115 4B68  
                        l123 4B86                          l300 4F1A                          l109 4BF2  
                        l230 5930                          l231 592C                          l151 530C  
                        l311 4B08                          l320 4BA8                          l129 4EC4  
                        l226 60EC                          l138 53C0                          l314 4B12  
                        l235 592C                          l323 4B10                          l260 5E9E  
                        l420 74B0                          l412 4DD0                          l173 4D0C  
                        l333 5030                          l317 4B20                          l166 4D4A  
                        l176 4C6C                          l184 4E1E                          l409 50A4  
                        l179 4C42                          l428 7D3E                          l701 525C  
                        l437 73F8                          l287 4F72                          l457 4C18  
                        l297 5A9C                          l722 553C                          l727 5582  
                        l754 5688                          l985 6AA0                          l994 6D70  
                        l986 6A8E                          l987 6A54                          u220 4B4A  
                        u221 4B46                          u770 4B20                          u771 4B1C  
               ___awmod@sign 0029                          wreg 000FE8                 ___flmul@aexp 004F  
               ___flmul@bexp 0050                 ___flmul@sign 004A                 ___flmul@temp 0055  
               ___flmul@prod 0051                 ___fltol@exp1 0023                         l1002 6BBA  
                       l1011 6C8A                         l1012 6C78                         l1112 5AF4  
                       l1200 4B38                         l1041 62E6                         l1050 632C  
                       l1115 5C50                         l1052 63A4                         l1044 62AA  
                       l1053 6392                         l1126 5BE8                         l1071 654C  
                       l1119 5B8C                         l1039 6486                         l1080 67BA  
                       l3000 6C0C                         l1081 67A8                         l3010 6C38  
                       l3002 6C0E                         l1075 68B0                         l3020 6C70  
                       l3004 6C1C                         l3012 6C3A                         l3100 61E8  
                       l1078 6742                         l3030 6CEE                         l3006 6C24  
                       l3014 6C48                         l3110 6210                         l3102 61EC  
                       l1088 6872                         l3200 51C8                         l3040 6D34  
                       l3024 6C9A                         l3032 6CF0                         l3016 6C4C  
                       l3008 6C28                         l3120 625E                         l3210 51FC  
                       l3202 51CC                         l3050 6D5E                         l3042 6D42  
                       l3034 6D00                         l3026 6CA6                         l3018 6C5A  
                       l3130 62A8                         l3122 626E                         l3114 6224  
                       l3106 6200                         l2250 4B2A                         l3220 5236  
                       l3212 5204                         l3204 51DA                         l3052 6D60  
                       l3044 6D48                         l3036 6D10                         l3028 6CB4  
                       l3140 62F6                         l3132 62B4                         l3124 6276  
                       l3116 623E                         l3108 6210                         l3060 6108  
                       l1452 4B04                         l3300 5136                         l2252 4B2C  
                       l2244 4B22                         l3214 5212                         l3222 523C  
                       l3206 51E2                         l3046 6D4A                         l3038 6D30  
                       l3142 630C                         l3150 633C                         l3134 62D2  
                       l3126 6286                         l3118 624E                         l3070 613C  
                       l3062 610A                         l3230 5480                         l3310 51A4  
                       l3302 514C                         l2254 4B2E                         l2246 4B26  
                       l3320 4CD0                         l3224 524C                         l3216 5228  
                       l3208 51F4                         l3048 6D50                         l3152 634A  
                       l3144 6312                         l3136 62D4                         l3128 629A  
                       l3080 616E                         l3064 611A                         l3072 6144  
                       l3056 60EE                         l3240 550A                         l3232 54AE  
                       l2600 580C                         l1456 4B12                         l3400 781A  
                       l3304 5158                         l2256 4B30                         l2248 4B28  
                       l2530 5F10                         l2522 5EA0                         l3322 4BD0  
                       l3226 5254                         l3218 5230                         l3162 63B4  
                       l3170 63FC                         l3154 634E                         l3146 631C  
                       l3138 62E4                         l3090 61A2                         l3082 6170  
                       l3074 6154                         l3066 612A                         l3058 60FA  
                       l3242 551C                         l3234 54BE                         l2610 5870  
                       l2602 5828                         l3410 7AEA                         l3402 797C  
                       l3330 4DC4                         l3306 5160                         l2258 4B32  
                       l2540 5FA4                         l2532 5F2C                         l2524 5EBC  
                       l3500 65B8                         l3180 6466                         l3172 6416  
                       l3164 63C0                         l3156 635C                         l3148 632A  
                       l3084 6180                         l3092 61AA                         l3076 615A  
                       l3068 613A                         l3244 552A                         l3236 54EC  
                       l3260 55D8                         l3252 5584                         l2700 56BC  
                       l3420 7BF8                         l3412 7AF6                         l3404 7988  
                       l3340 742A                         l3332 73FA                         l3324 4D8E  
                       l3316 51AA                         l3308 5176                         l2284 4B0A  
                       l2630 4C6E                         l2550 6036                         l2542 5FBE  
                       l2534 5F46                         l2526 5ECE                         l3510 6602  
                       l3502 65D0                         l3182 6474                         l3174 642C  
                       l3166 63CE                         l3158 638A                         l3094 61BA  
                       l3086 6190                         l3078 6160                         l3246 557A  
                       l3238 54FC                         l3262 55DA                         l3254 559A  
                       l2702 5708                         l3422 7C58                         l3414 7B4A  
                       l3406 7A90                         l3350 745C                         l3342 7436  
                       l3334 7412                         l3326 4D9A                         l2286 4B0E  
                       l2632 4C7A                         l2560 60CE                         l2552 6056  
                       l2544 5FDE                         l2536 5F66                         l2528 5EEE  
                       l3520 6658                         l3512 6612                         l3504 65DC  
                       l3600 5B74                         l3184 647A                         l3176 6446  
                       l3168 63F8                         l3096 61D0                         l3088 61A0  
                       l3248 5580                         l3264 55EA                         l2624 58E4  
                       l2616 589C                         l2608 5854                         l2720 57BE  
                       l2704 5730                         l2712 5782                         l2640 4E20  
                       l2800 4F58                         l3440 7D08                         l3432 7C8C  
                       l3424 7C64                         l3416 7B9E                         l3408 7A96  
                       l3360 74A4                         l3352 7462                         l3344 743C  
                       l3336 741E                         l3328 4DA6                         l2730 5CC2  
                       l2722 5C52                         l2634 4C7E                         l2554 6078  
                       l2546 6000                         l2538 5F88                         l2562 4C44  
                       l3530 66FC                         l3522 6674                         l3514 661E  
                       l3506 65E8                         l3610 5BD8                         l3602 5B76  
                       l3194 51AE                         l3186 647C                         l3178 6462  
                       l3098 61E0                         l3290 5668                         l3274 5614  
                       l3266 55EE                         l3258 55AE                         l2650 4FDA  
                       l2626 5900                         l2618 58B8                         l2714 579C  
                       l2706 574E                         l2642 4E28                         l2802 4F5C  
                       l2810 59AA                         l3442 7D14                         l3434 7C90  
                       l3426 7C70                         l3418 7BF2                         l3370 7514  
                       l3362 74BC                         l3354 7474                         l3346 7448  
                       l3338 7424                         l2740 5D56                         l2732 5CDE  
                       l2724 5C6E                         l2556 6094                         l2548 601C  
                       l2564 4C1A                         l2580 4E0A                         l3540 6752  
                       l3532 670A                         l3524 6680                         l3516 662E  
                       l3508 65F6                         l3460 64B4                         l3452 6488  
                       l3620 5C30                         l3612 5BF6                         l3604 5B82  
                       l3196 51B2                         l2900 69B2                         l3292 5678  
                       l3284 563C                         l3276 561E                         l3268 55FC  
                       l2652 4FDE                         l2716 57A2                         l2708 577A  
                       l2636 4B6C                         l2644 4E44                         l2804 4F6E  
                       l2820 59FA                         l2812 59BE                         l3444 7D32  
                       l3428 7C74                         l3436 7C94                         l3380 7670  
                       l3372 7518                         l3364 74C0                         l3356 7486  
                       l3348 7458                         l3700 6E28                         l2750 5DE0  
                       l2742 5D68                         l2734 5CF0                         l2726 5C80  
                       l3630 4CCA                         l2558 60AE                         l2582 4E1A  
                       l2574 4DEA                         l2566 4DD2                         l2590 4F76  
                       l3542 6760                         l3534 6728                         l3526 669C  
                       l3518 6648                         l3470 64F0                         l3462 64C4  
                       l3454 6494                         l3446 4BF4                         l3622 5C3E  
                       l3614 5BF8                         l3606 5BBE                         l3198 51C0  
                       l2910 69C6                         l2902 69B6                         l3286 5648  
                       l3278 5628                         l2662 500A                         l2670 5016  
                       l2718 57A6                         l2638 4B7A                         l2646 4E46  
                       l2830 5A5A                         l2822 5A12                         l2814 59C6  
                       l2806 5932                         l3438 7CAC                         l3390 7712  
                       l3382 7674                         l3374 756E                         l3366 74D4  
                       l3358 7498                         l3710 6E56                         l3702 6E2E  
                       l2760 5E7C                         l2752 5E04                         l2744 5D8C  
                       l2736 5D14                         l2728 5CA0                         l2584 4D4C  
                       l2576 4E02                         l2568 4DE6                         l3640 53A2  
                       l3632 530E                         l3552 67CA                         l3560 6812  
                       l3544 6764                         l3536 6732                         l3528 66C6  
                       l3480 6526                         l3472 64F6                         l3464 64D4  
                       l3456 64A2                         l3448 4C10                         l3624 5C40  
                       l3616 5BFC                         l3608 5BCA                         l2920 69DA  
                       l2912 69CA                         l2904 69BA                         l3288 5658  
                       l2656 4FF2                         l2672 501A                         l2648 4FCE  
                       l2592 57C8                         l2680 50AE                         l2824 5A26  
                       l2816 59DE                         l2808 5992                         l3392 7766  
                       l3384 76A6                         l3376 75C4                         l3368 7508  
                       l3296 5120                         l3704 6E34                         l3720 6E90  
                       l2754 5E2A                         l2746 5DB2                         l2738 5D3A  
                       l2586 4D60                         l2578 4E08                         l2762 4B4E  
                       l3642 53AE                         l3634 536E                         l3570 6886  
                       l3562 682C                         l3554 67D6                         l3546 6772  
                       l3538 6740                         l3482 6536                         l3474 6504  
                       l3466 64DA                         l3458 64A4                         l3618 5C20  
                       l2930 69EE                         l2922 69DE                         l2914 69CE  
                       l2906 69BE                         l2666 5010                         l2658 4FF6  
                       l2594 57E4                         l2690 511C                         l2682 50E8  
                       l2674 50A6                         l2770 4E9C                         l2826 5A2E  
                       l2818 59F2                         l2850 4BA2                         l2842 4B88  
                       l3394 77BA                         l3386 76B2                         l3378 761A  
                       l3298 5128                         l3730 6ED4                         l3722 6E9C  
                       l3706 6E40                         l3650 4EC6                         l2756 5E46  
                       l2748 5DCE                         l3628 4C9E                         l2588 4D6C  
                       l3644 53B4                         l3636 537A                         l3572 6894  
                       l3564 6840                         l3556 67E4                         l3548 67A0  
                       l3492 6580                         l3484 653C                         l3476 6506  
                       l3468 64EA                         l2940 6A4C                         l2924 69E2  
                       l2916 69D2                         l2908 69C2                         l2932 69F2  
                       l2860 68CE                         l2764 4E70                         l2780 52A6  
                       l2772 525E                         l2828 5A46                         l2836 5A62  
                       l2852 4BA6                         l2844 4B92                         l3396 77C0  
                       l3388 76BE                         l3740 6F1A                         l3732 6EE4  
                       l3724 6EAA                         l3708 6E46                         l3660 5062  
                       l3652 5032                         l2758 5E58                         l3646 53BA  
                       l3638 5394                         l3574 6896                         l3566 685A  
                       l3558 680E                         l3494 658C                         l3486 655C  
                       l3478 6516                         l3590 5B1A                         l3582 5AA0  
                       l2950 6A82                         l2942 6A62                         l2934 69F6  
                       l2926 69E6                         l2918 69D6                         l2862 68DE  
                       l2870 6908                         l2854 68B2                         l2694 568A  
                       l2686 50FC                         l2766 4E7C                         l2782 52BE  
                       l2774 526C                         l2790 4F1E                         l2846 4B96  
                       l3398 7814                         l3750 6FCC                         l3742 6F34  
                       l3734 6EF6                         l3726 6EBC                         l3718 6E5E  
                       l3670 5098                         l3662 506E                         l3654 503E  
                       l3830 53CE                         l3648 4D0E                         l3568 6876  
                       l3576 689C                         l3496 6596                         l3488 656C  
                       l3584 5AB0                         l2960 6AD2                         l2952 6A8C  
                       l2944 6A6E                         l2936 6A20                         l2928 69EA  
                       l2880 6938                         l2872 6918                         l2864 68EE  
                       l2856 68BE                         l2696 569C                         l2688 5100  
                       l2768 4E98                         l2784 52D2                         l2776 5284  
                       l2792 4F2E                         l2848 4B9E                         l3760 7004  
                       l3752 6FDE                         l3744 6F5E                         l3736 6F06  
                       l3728 6EC2                         l3680 6DB8                         l3672 6D74  
                       l3664 507A                         l3656 504A                         l3840 53EC  
                       l3832 53D2                         l3578 68A0                         l3498 65AC  
                       l3594 5B2E                         l3586 5ABE                         l2970 6B0E  
                       l2962 6AE2                         l2954 6AAE                         l2946 6A72  
                       l2938 6A3C                         l2890 6978                         l2882 6946  
                       l2874 691E                         l2866 68FE                         l2858 68CC  
                       l2786 52E0                         l2778 5298                         l2794 4F32  
                       l3770 71B6                         l3762 7016                         l3754 6FF0  
                       l3746 6F9C                         l3690 6DF0                         l3682 6DC4  
                       l3674 6D9C                         l3666 5080                         l3658 5056  
                       l3850 541E                         l3842 53F2                         l3834 53D6  
                       l3596 5B36                         l3588 5B04                         l2980 6B54  
                       l2972 6B1C                         l2964 6AF0                         l2956 6ABE  
                       l2948 6A80                         l2892 697A                         l2884 6948  
                       l2876 6930                         l2868 6900                         l2788 52F8  
                       l2796 4F42                         l3780 732E                         l3764 7074  
                       l3772 71EE                         l3756 6FF2                         l3748 6FAE  
                       l3692 6DF6                         l3684 6DCA                         l3676 6DAC  
                       l3668 5086                         l3932 545E                         l3852 5426  
                       l3844 53FE                         l3836 53DA                         l3828 53C2  
                       l3598 5B42                         l2990 6BD0                         l2982 6B88  
                       l2974 6B1E                         l2966 6AFE                         l2886 6958  
                       l2894 6982                         l2878 6932                         l2798 4F46  
                       l3782 73A0                         l3774 7200                         l3766 70D2  
                       l3758 7004                         l3934 6E72                         l3694 6E02  
                       l3686 6DDA                         l3678 6DB2                         l3854 542C  
                       l3846 540A                         l3838 53E0                         l2992 6BE0  
                       l2984 6B8A                         l2976 6B28                         l2968 6B0A  
                       l2896 6992                         l2888 6968                         l3936 5A76  
                       l3776 725E                         l3784 73D4                         l3768 7144  
                       l3696 6E08                         l3688 6DEA                         l3856 543C  
                       l3848 541A                         l3864 544A                         l2986 6B9A  
                       l2978 6B2E                         l2898 69A4                         l3778 72BC  
                       l3698 6E18                         l3858 5442                         l3866 5474  
                       l2996 6BF4                         l2988 6BAA                         l2998 6BFE  
                       STR_1 7F94                         STR_2 7F33                         STR_3 7DC5  
                       STR_4 7E07                         STR_5 7E25                         STR_6 7E88  
                       STR_7 7E70                         STR_8 7E58                         STR_9 7F03  
                       u2200 5EBC                         u3000 6958                         u2201 5EB8  
                       u3001 6954                         u2210 5ECE                         u3010 6968  
                       u2211 5ECA                         u3011 6964                         u3100 6AAE  
                       u3020 69A4                         u3101 6AAA                         u3021 69A0  
                       u3110 6ABE                         u3030 69B2                         u3111 6ABA  
                       u3031 69AE                         u2320 601C                         u2304 5FD0  
                       u2240 5F2C                         u2224 5EE0                         u2400 4E1A  
                       u4000 67B6                         u3200 6C1C                         u3120 6AF0  
                       u3040 6A20                         u2321 6018                         u2305 5FCC  
                       u2241 5F28                         u2225 5EDC                         u2401 4E16  
                       u4001 67B2                         u3201 6C18                         u3121 6AEC  
                       u3041 6A1C                         u2330 6036                         u2314 5FF0  
                       u2250 5F46                         u2234 5F00                         u4010 67CA  
                       u3210 6C38                         u3130 6AFE                         u3050 6A38  
                       u2410 57E4                         u2331 6032                         u2315 5FEC  
                       u2251 5F42                         u2235 5EFC                         u4011 67C6  
                       u3211 6C34                         u3131 6AFA                         u3051 6A32  
                       u2411 57E0                         u4020 67E4                         u4100 5BBA  
                       u3300 6D10                         u3220 6C48                         u3140 6B1C  
                       u3060 6A3A                         u4021 67E0                         u4101 5BB6  
                       u3301 6D0C                         u3221 6C44                         u3141 6B18  
                       u2510 4C9C                         u4030 682C                         u4110 5BD8  
                       u3310 6D30                         u3230 6C5A                         u3150 6B54  
                       u3070 6A62                         u2430 5828                         u2511 4C98  
                       u4031 6828                         u4111 5BD4                         u3311 6D2C  
                       u3231 6C56                         u3151 6B50                         u3071 6A5E  
                       u2431 5824                         u2360 6094                         u2344 6048  
                       u2280 5FA4                         u2264 5F58                         u4040 685A  
                       u4120 5BE8                         u3320 6D42                         u3240 6C70  
                       u3160 6B9A                         u3080 6A80                         u3400 61D0  
                       u2504 5916                         u2424 57F6                         u2520 4E6E  
                       u4200 6F9C                         u2361 6090                         u2345 6044  
                       u2281 5FA0                         u2265 5F54                         u4041 6856  
                       u4121 5BE4                         u3321 6D3E                         u3241 6C6C  
                       u3161 6B96                         u3081 6A7C                         u3401 61CC  
                       u2505 5912                         u2425 57F2                         u2521 4E6A  
                       u4201 6F98                         u2370 60AE                         u2354 6068  
                       u2290 5FBE                         u2274 5F78                         u4050 6894  
                       u4130 5BF6                         u3330 6D5E                         u3250 6C86  
                       u3170 6BD0                         u3090 6AA0                         u3410 6210  
                       u2530 4FEE                         u2450 5870                         u2610 5708  
                       u4210 6FAE                         u2371 60AA                         u2355 6064  
                       u2291 5FBA                         u2275 5F74                         u4051 6890  
                       u4131 5BF2                         u3331 6D5A                         u3251 6C82  
                       u3171 6BCC                         u3091 6A9C                         u3411 620C  
                       u2531 4FEA                         u2451 586C                         u2611 5704  
                       u4211 6FAA                         u4140 5C30                         u4060 5AB0  
                       u3260 6C9A                         u3180 6BE0                         u3500 638A  
                       u3420 6286                         u3340 6108                         u2540 5006  
                       u2444 583E                         u2604 56D8                         u4220 6FCC  
                       u4141 5C2C                         u4061 5AAC                         u3261 6C96  
                       u3181 6BDC                         u3501 6386                         u3421 6282  
                       u3341 6104                         u2541 5002                         u2445 583A  
                       u2605 56D2                         u4221 6FC8                         u2710 5CDE  
                       u4150 5C3E                         u4070 5ABE                         u3270 6CB4  
                       u3190 6C0C                         u3510 63A0                         u3430 62A8  
                       u3350 611A                         u2550 5030                         u2470 58B8  
                       u2630 574E                         u4230 6FDE                         u2711 5CDA  
                       u4151 5C3A                         u4071 5ABA                         u3271 6CB0  
                       u3191 6C08                         u3511 639C                         u3431 62A4  
                       u3351 6116                         u2551 502C                         u2471 58B4  
                       u2631 574A                         u4231 6FDA                         u2800 5DE0  
                       u2720 5CF0                         u2704 5CB2                         u2384 60C0  
                       u4080 5B1A                         u3600 5212                         u3280 6CEE  
                       u3520 63B4                         u3440 62D2                         u3360 612A  
                       u2464 5886                         u2624 5720                         u4240 7004  
                       u4160 6EBC                         u2801 5DDC                         u2721 5CEC  
                       u2705 5CAE                         u2385 60BC                         u4081 5B16  
                       u3601 520E                         u3281 6CEA                         u3521 63B0  
                       u3441 62CE                         u3361 6126                         u2465 5882  
                       u2625 571A                         u4241 7000                         u4161 6EB8  
                       u2394 60E0                         u4090 5B70                         u3610 5228  
                       u3290 6D00                         u3530 63CE                         u3450 62F6  
                       u3370 616E                         u2490 5900                         u2650 579C  
                       u2570 50E8                         u4250 7016                         u4170 6ED4  
                       u2395 60DC                         u4091 5B6C                         u3611 5224  
                       u3291 6CFC                         u3531 63CA                         u3451 62F2  
                       u3371 616A                         u2491 58FC                         u2651 5798  
                       u2571 50E4                         u4251 7012                         u4171 6ED0  
                       u3620 524C                         u3540 6416                         u3460 630C  
                       u3380 6180                         u3700 55FC                         u2484 58CE  
                       u2660 57BE                         u2644 576A                         u2580 511C  
                       u2564 50C6                         u2900 52E0                         u4260 7200  
                       u4180 6EF6                         u3621 5248                         u3541 6412  
                       u3461 6308                         u3381 617C                         u3701 55F8  
                       u2485 58CA                         u2661 57BA                         u2645 5764  
                       u2581 5118                         u2565 50C0                         u2901 52DC  
                       u4261 71FC                         u4181 6EF2                         u2830 5E46  
                       u2814 5DF6                         u2750 5D56                         u2734 5D06  
                       u2670 5C6E                         u3550 6446                         u3470 632A  
                       u3390 6190                         u3630 54AE                         u3710 5610  
                       u2590 56B8                         u2910 4F2E                         u4190 6F5E  
                       u2831 5E42                         u2815 5DF2                         u2751 5D52  
                       u2735 5D02                         u2671 5C6A                         u3551 6442  
                       u3471 6326                         u3391 618C                         u3631 54AA  
                       u3711 560C                         u2591 56B4                         u2911 4F2A  
                       u4191 6F5A                         u2840 5E58                         u2824 5E1A  
                       u2760 5D68                         u2744 5D2A                         u2680 5C80  
                       u3560 6474                         u3480 634A                         u3640 54EC  
                       u3720 5638                         u2920 4F42                         u3800 51A4  
                       u4360 543C                         u2841 5E54                         u2825 5E16  
                       u2761 5D64                         u2745 5D26                         u2681 5C7C  
                       u3561 6470                         u3481 6346                         u3641 54E8  
                       u3721 5634                         u2921 4F3E                         u3801 51A0  
                       u4361 5438                         u3570 51C0                         u3490 635C  
                       u3650 550A                         u3730 5658                         u2930 4F58  
                       u3810 7474                         u3571 51BC                         u3491 6358  
                       u3651 5506                         u3731 5654                         u2931 4F54  
                       u3811 7470                         u3900 6504                         u3580 51DA  
                       u3660 552A                         u3740 5668                         u2940 4F6E  
                       u3820 7486                         u3901 6500                         u3581 51D6  
                       u3661 5526                         u3741 5664                         u2941 4F6A  
                       u3821 7482                         u2854 5E6E                         u2790 5DCE  
                       u2774 5D7E                         u2694 5C92                         u3910 6516  
                       u3590 51F4                         u2950 68CC                         u3670 557A  
                       u2870 4EC4                         u3830 74D4                         u3750 5136  
                       u2855 5E6A                         u2791 5DCA                         u2775 5D7A  
                       u2695 5C8E                         u3911 6512                         u3591 51F0  
                       u2951 68C8                         u3671 5576                         u2871 4EC0  
                       u3831 74D0                         u3751 5132                         u2864 5E92  
                       u2784 5DA2                         u3920 6526                         u2960 68DE  
                       u3680 559A                         u2880 526C                         u3840 76A6  
                       u3760 5144                         u2865 5E8E                         u2785 5D9E  
                       u3921 6522                         u2961 68DA                         u3681 5596  
                       u2881 5268                         u3841 76A2                         u3761 5140  
                       u3930 655C                         u2970 68EE                         u3690 55CE  
                       u2890 52A6                         u3850 7C88                         u3770 5176  
                       u3931 6558                         u2971 68EA                         u2891 52A2  
                       u3851 7C84                         u3771 5172                         u3940 656C  
                       u2980 6930                         u3860 7CAC                         u3780 5188  
                       u3941 6568                         u2981 692C                         u3861 7CA8  
                       u3781 5184                         u3950 66E6                         u3870 64A2  
                       u2990 6946                         u3790 5196                         u3871 649E  
                       u2991 6942                         u3695 55C4                         u3791 5192  
                       u3960 6740                         u3880 64B4                         u3961 673C  
                       u3881 64B0                         u3970 6760                         u3890 64C4  
                       u3971 675C                         u3955 66DC                         u3891 64C0  
                       u3980 6772                         u3981 676E                         u3990 67A0  
                       u3991 679C                         _main 53C2                         _keys 0084  
           ??_PulseClockData 0007                         indf2 000FDF                         fsr2l 000FD9  
      __end_of_opcaoInvalida 4DD2                         prodh 000FF4                         prodl 000FF3  
                       start 0000              ___fldiv@new_exp 0012              pushNibble@value 000C  
           serial_rx@timeout 0007                 ___param_bank 000000       __end_of_pulseEnablePin 4D8E  
              ___fltol@sign1 0022              __end_of___fladd 6D72                        ?_main 0001  
            __end_of___fldiv 6488                        STR_10 7FE1                        STR_11 7FC4  
                      STR_20 7FCF                        STR_12 7F7A                        STR_21 7FFC  
                      STR_13 7EB5                        STR_30 7FF1                        STR_14 7FAD  
                      STR_22 7E3F                        STR_23 7FA1                        STR_31 7F5E  
                      STR_15 7F14                        STR_24 7FF8                        STR_32 7FEA  
                      STR_16 7D5B                        STR_25 7F6C                        STR_33 7F50  
                      STR_17 7F24                        STR_26 7F87                        STR_18 7EDD  
                      STR_34 7D93                        STR_19 7FB9                        STR_35 7EC9  
                      STR_27 7DE8                        STR_28 7FD8                        STR_36 7EF0  
            __end_of___awmod 525E                        STR_29 7F42                        STR_37 7EA0  
            __end_of___flmul 68B2              __end_of___fltol 568A                        _T0CON 000FD5  
                      _RCREG 000FAE                        _TMR0H 000FD7                        _TMR0L 000FD6  
                      _SPBRG 000FAF                        _PORTA 000F80                        _PORTB 000F81  
                      _PORTC 000F82                        _PORTD 000F83                        _PORTE 000F84  
            __end_of_charKey 7D5B                        _TRISA 000F92                        _TRISB 000F93  
                      _TRISC 000F94                        _TRISD 000F95                        _TRISE 000F96  
                      _TXREG 000FAD              __end_of_lcdChar 4B88              __end_of_lcdInit 53C2  
            __end_of_rgbInit 4D4C              __end_of_pinMode 5EA0                        _valor 7D41  
            __end_of_soWrite 4E20                        tablat 000FF5              __end_of_ssdInit 4F1C  
                      status 000FD8                 pushNibble@rs 000A         __end_of_digitalWrite 60EE  
            __initialization 4BAA              ?_pulseEnablePin 0001                 __end_of_main 5480  
           serial_tx_str@val 0002                 ?_telaInicial 0001                       ??_main 0075  
              __activetblptr 000002         __size_of_digitalRead 016A                       _ADCON1 000FC1  
                rgbColor@led 0007                 atraso_ms@num 0001                       _INTCON 000FF2  
           __end_of___xxtofl 5C52           _abastecimentoBomba 73FA                 ?_serial_init 0001  
                     ___flge 5480                    ??___fladd 0046                       ___wmul 4BF4  
                  ??___fldiv 0009                    ??___awmod 0028                    ??___flmul 0046  
                  ??___fltol 001E      abastecimentoBomba@tecla 0056                       _kpInit 4C9E  
           __end_of_rgbColor 530E      abastecimentoBomba@tempo 0057          ?_abastecimentoBomba 004E  
                     _soInit 4CD0              ___awmod@divisor 0026                    ??_lcdChar 000E  
                     isa$std 000001                    ??_lcdInit 000F              ___awmod@counter 0028  
                  ??_rgbInit 0007             __end_of_ssdDigit 4F74                    ??_pinMode 0005  
__size_of_selecaoCombustivel 0688                 __mediumconst 7D40                       tblptrh 000FF7  
                     tblptrl 000FF6                       tblptru 000FF8                    ??_soWrite 0009  
                  ??_ssdInit 0007             __end_of_pushByte 4FCE         ??_abastecimentoBomba 0056  
                 ___flge@ff1 0001                   ___flge@ff2 0005                 ___xxtofl@arg 003A  
               ___xxtofl@exp 0039                 ___xxtofl@val 0030                   __accesstop 0080  
    __end_of__initialization 4BC4                ___rparam_used 000001                pushByte@value 000D  
                 ___fltol@f1 001A                  pinMode@type 0003               __pcstackCOMRAM 0001  
              __end_of_valor 7D51        __end_of_serial_tx_str 4E70           __size_of_delayMili 0030  
         __size_of_lcdString 0056           __size_of_kpReadKey 007A           __size_of_atraso_ms 0064  
                 __pbssBANK0 0080        __size_of_digitalWrite 024E                   _delayMicro 4B02  
                    ?___flge 0001                   _lcdCommand 4B4C                      ?___wmul 002A  
                    ?_kpInit 0001                      ?_soInit 0001                   _kpDebounce 568A  
       selecaoCombustivel@op 0073           __size_of_serial_rx 008E           __size_of_serial_tx 0016  
         __size_of_timerInit 0008           __size_of_timerWait 0010           __size_of_ssdUpdate 016C  
                  ?___xxtofl 0030         __size_of_telaInicial 0074                 _digitalWrite 5EA0  
          __end_of_delayMili 4C9E                    ?_rgbColor 0007             ??_pulseEnablePin 0007  
                    __Hparam 0000                      __Lparam 0000                    ?_ssdDigit 002A  
          __end_of_lcdString 4EC6              kpDebounce@tempo 007E            __end_of_kpReadKey 5120  
            __size_of___flge 0104                      ___fladd 68B2                      ___fldiv 60EE  
                    ___awmod 51AE                      ___flmul 6488                      ___fltol 5584  
                  ?_pushByte 000A              __size_of___wmul 0026         __size_of_serial_init 0014  
          __end_of_atraso_ms 5032              __size_of_kpInit 0032                      _charKey 7D51  
                ssdDigit@val 002B                  ssdDigit@pos 002A                      __pcinit 4BAA  
                    _lcdChar 4B6A                      __ramtop 0600              __size_of_soInit 003E  
                    _lcdInit 530E                      __ptext0 53C2                      __ptext1 4B0A  
                    __ptext2 5032                      __ptext3 4EC6                      __ptext4 4B22  
                    __ptext5 6D72                      __ptext6 5120                      __ptext7 4D8E  
                    __ptext8 73FA                      __ptext9 4B12                      _display 007D  
                    _rgbInit 4D0E       __size_of_opcaoInvalida 0044                   ??___xxtofl 0034  
                    _pinMode 5C52             ___awmod@dividend 0024                   delayMili@a 0001  
                 delayMili@i 0004                      _soWrite 4DD2                      _ssdInit 4EC6  
  abastecimentoBomba@totalIn 004E                  serial_rx@to 0009         end_of_initialization 4BC4  
              ?_PulseEnClock 0001                   ??_rgbColor 0009   abastecimentoBomba@litrosIn 0052  
              __Lmediumconst 7D40            __end_of_serial_rx 51AE               digitalRead@pin 0001  
          __end_of_serial_tx 4B4C                  ?_delayMicro 0001            __end_of_timerInit 4B12  
          __end_of_timerWait 4B22            __end_of_ssdUpdate 5A9E                   ??_ssdDigit 002B  
                  _RCSTAbits 000FAB                  ?_lcdCommand 0001                      postinc2 000FDE  
                 ??_pushByte 000C                   _timerEnded 4B04      __size_of_PulseClockData 002A  
              ??_digitalRead 0003                   _timerReset 4B88                  ?_kpDebounce 0001  
                ___fladd@grs 004D                ___xxtofl@sign 0038                   _pushNibble 4BCE  
                 lcdString@i 0013                  ___fldiv@grs 0014                  ___fldiv@rem 000D  
             ??_PulseEnClock 0007                  ___flmul@grs 004B                   kpReadKey@i 0004  
                  _TXSTAbits 000FAC                _opcaoInvalida 4D8E               serial_tx_str@i 0006  
             __end_of___flge 5584                   atraso_ms@i 0003                   atraso_ms@j 0005  
                 atraso_ms@k 0006               __end_of___wmul 4C1A               __end_of_kpInit 4CD0  
             __end_of_soInit 4D0E   __end_of_selecaoCombustivel 73FA          __size_of_delayMicro 0002  
        start_initialization 4BAA          __end_of_digitalRead 5932          __size_of_lcdCommand 001E  
__size_of_abastecimentoBomba 0946          __size_of_kpDebounce 013E               ?_opcaoInvalida 0001  
   selecaoCombustivel@buffer 0066            kpDebounce@oldRead 0080     selecaoCombustivel@litros 006B  
          kpDebounce@newRead 0082                     ??___flge 0009       abastecimentoBomba@cont 0059  
                   ??___wmul 002E                     ??_kpInit 0007                  ?_timerEnded 0001  
                ?_timerReset 0001                     ??_soInit 0007                    ___fladd@a 0042  
                  ___fladd@b 003E                    ___fldiv@a 0005                    ___fldiv@b 0001  
                  ___flmul@a 0042                    ___flmul@b 003E                  __pbssCOMRAM 0079  
                ?_pushNibble 000A                   pinMode@pin 0001            __size_of___xxtofl 01B4  
     __size_of_serial_tx_str 0050            __size_of_rgbColor 00B0                    _delayMili 4C6E  
              __pmediumconst 7D40                     ?___fladd 003E                     ?___fldiv 0001  
                   ?___awmod 0024                     ?___flmul 003E                     ?___fltol 001A  
        selecaoCombustivel@i 0074            __size_of_ssdDigit 0058               _PulseClockData 4C1A  
       __end_of_PulseEnClock 4C6E                    _lcdString 4E70                  _digitalRead 57C8  
                   ?_lcdChar 0001                ??_telaInicial 0015            __size_of_pushByte 005A  
                   ?_lcdInit 0001                    _kpReadKey 50A6                    _atraso_ms 4FCE  
                   ?_rgbInit 0001                     ?_pinMode 0001                     ?_soWrite 0007  
                   ?_ssdInit 0001              ??_opcaoInvalida 0015          __size_of_timerEnded 0006  
        __size_of_timerReset 0022               ___wmul@product 002E                 ??_delayMicro 0003  
                 ?_delayMili 0001                     _PIR1bits 000F9E                ??_serial_init 0001  
                  _serial_rx 5120                    _serial_tx 4B36       __end_of_PulseClockData 4C44  
        __size_of_pushNibble 0026                 ??_lcdCommand 000E                    _timerInit 4B0A  
                  _timerWait 4B12                    _ssdUpdate 5932                   ?_lcdString 000F  
               ??_kpDebounce 000A                _serial_tx_str 4E20                   ?_kpReadKey 0001  
          ___wmul@multiplier 002A                   ?_atraso_ms 0001              lcdCommand@value 000E  
                  main@tecla 0078           __end_of_delayMicro 4B04          __end_of_telaInicial 50A6  
           timerReset@ciclos 0003           __end_of_lcdCommand 4B6A                   pushByte@rs 000A  
               lcdChar@value 000E           __end_of_kpDebounce 57C8    selecaoCombustivel@teclaIn 0061  
                   __Hrparam 0000                     __Lrparam 0000                   ?_serial_rx 0007  
                 ?_serial_tx 0001      selecaoCombustivel@price 0062              ?_PulseClockData 0001  
    selecaoCombustivel@total 006F                   ?_timerInit 0001                   ?_timerWait 0001  
                 ?_ssdUpdate 0001             __size_of___fladd 04C0             __size_of___fldiv 039A  
           __size_of___awmod 00B0             __size_of___flmul 042A             __size_of___fltol 0106  
             ?_serial_tx_str 0002      __size_of_pulseEnablePin 0042          __end_of_serial_init 4B36  
           __size_of_lcdChar 001E             __size_of_lcdInit 00B4                     ___xxtofl 5A9E  
           __size_of_rgbInit 003E             __size_of_pinMode 024E                     __ptext10 4B88  
                   __ptext11 4B04                     __ptext20 568A                     __ptext12 5932  
                   __ptext21 57C8                     __ptext13 4F1C                     __ptext30 6488  
                   __ptext22 4FCE                     __ptext14 4E20                     __ptext31 4D0E  
                   __ptext23 5584                     __ptext15 4B36                     __ptext40 5EA0  
                   __ptext32 530E                     __ptext24 5480                     __ptext16 525E  
                   __ptext41 4B02                     __ptext33 4BCE                     __ptext25 60EE  
                   __ptext17 4E70                     __ptext42 4C6E                     __ptext34 4B4C  
                   __ptext26 68B2                     __ptext18 4B6A                     __ptext43 4C9E  
                   __ptext35 4F74                     __ptext27 51AE                     __ptext19 50A6  
                   __ptext44 4CD0                     __ptext36 4DD2                     __ptext28 5A9E  
                   __ptext45 5C52                     __ptext37 4C44                     __ptext29 4BF4  
                   __ptext38 4C1A                     __ptext39 4D4C             __size_of_soWrite 004E  
           __size_of_ssdInit 0056           _selecaoCombustivel 6D72                     _rgbColor 525E  
              __size_of_main 00BE                  ??_delayMili 0003          ?_selecaoCombustivel 0001  
      __size_of_PulseEnClock 002A                     _ssdDigit 4F1C                  delayMicro@a 0001  
                   isa$xinst 000000                 soWrite@value 0007                     _pushByte 4F74  
               ??_timerEnded 0001                  ??_lcdString 0011                 serial_tx@val 0001  
               ??_timerReset 0003                     main@slot 0077                  ??_kpReadKey 0001  
                _telaInicial 5032                  ??_atraso_ms 0003              timerReset@tempo 0001  
       ??_selecaoCombustivel 005D                 ??_pushNibble 000C                ?_digitalWrite 0001  
 __end_of_abastecimentoBomba 7D40                 _PulseEnClock 4C44            digitalWrite@value 0003  
         __end_of_timerEnded 4B0A           __end_of_timerReset 4BAA                     soWrite@i 0009  
                ??_serial_rx 0009                  ??_serial_tx 0001                  _serial_init 4B22  
            ??_serial_tx_str 0004                  ??_timerInit 0001                  ??_timerWait 0001  
                ??_ssdUpdate 000A           __end_of_pushNibble 4BF4                 ?_digitalRead 0001  
                kpDebounce@i 000D               ??_digitalWrite 0005                ___fladd@signs 004A  
            digitalWrite@pin 0001                 ___fladd@aexp 004B                 ___fladd@bexp 004C  
